(lp0
(I60000
cnumpy.core.multiarray
scalar
p1
(cnumpy
dtype
p2
(S'f8'
p3
I0
I1
tp4
Rp5
(I3
S'<'
p6
NNNI-1
I-1
I0
tp7
bS'\xcb\xb2,\xcb\xb2,4\xc0'
p8
tp9
Rp10
F-inf
tp11
a(I70000
g1
(g5
S'1b\xc4\x88\x11#4\xc0'
p12
tp13
Rp14
F-inf
tp15
a(I80000
g1
(g5
S'I\x92$I\x92$4\xc0'
p16
tp17
Rp18
F-inf
tp19
a(I90000
g1
(g5
S'\x87\xf2\x1a\xcak(4\xc0'
p20
tp21
Rp22
F-inf
tp23
a(I100000
g1
(g5
S'3333334\xc0'
p24
tp25
Rp26
g1
(g5
S'\xaeG\xe1z\x14.4\xc0'
p27
tp28
Rp29
tp30
a(I110000
g1
(g5
S'\xf6(\\\x8f\xc254\xc0'
p31
tp32
Rp33
g29
tp34
a(I120000
g1
(g5
S'q=\n\xd7\xa304\xc0'
p35
tp36
Rp37
g1
(g5
S'\xecQ\xb8\x1e\x85+4\xc0'
p38
tp39
Rp40
tp41
a(I130000
g1
(g5
S'fffff&4\xc0'
p42
tp43
Rp44
g1
(g5
S'fffff&4\xc0'
p45
tp46
Rp47
tp48
a(I140000
g1
(g5
S'\x1f\x85\xebQ\xb8\x1e4\xc0'
p49
tp50
Rp51
g1
(g5
S'\x1f\x85\xebQ\xb8\x1e4\xc0'
p52
tp53
Rp54
tp55
a(I150000
g1
(g5
S'\\\x8f\xc2\xf5(\x1c4\xc0'
p56
tp57
Rp58
g1
(g5
S'\\\x8f\xc2\xf5(\x1c4\xc0'
p59
tp60
Rp61
tp62
a(I160000
g1
(g5
S')\\\x8f\xc2\xf5(4\xc0'
p63
tp64
Rp65
g61
tp66
a(I170000
g1
(g5
S'\xf6(\\\x8f\xc254\xc0'
p67
tp68
Rp69
g61
tp70
a(I180000
g1
(g5
S')\\\x8f\xc2\xf5(4\xc0'
p71
tp72
Rp73
g61
tp74
a(I190000
g1
(g5
S'\xaeG\xe1z\x14.4\xc0'
p75
tp76
Rp77
g61
tp78
a(I200000
g1
(g5
S'q=\n\xd7\xa304\xc0'
p79
tp80
Rp81
g61
tp82
a(I210000
g1
(g5
S'\x00\x00\x00\x00\x00@4\xc0'
p83
tp84
Rp85
g61
tp86
a(I220000
g1
(g5
S'3333334\xc0'
p87
tp88
Rp89
g61
tp90
a(I230000
g1
(g5
S'\x85\xebQ\xb8\x1eE4\xc0'
p91
tp92
Rp93
g61
tp94
a(I240000
g1
(g5
S'\x00\x00\x00\x00\x00@4\xc0'
p95
tp96
Rp97
g61
tp98
a(I250000
g1
(g5
S'=\n\xd7\xa3p=4\xc0'
p99
tp100
Rp101
g61
tp102
a(I260000
g1
(g5
S'\xc3\xf5(\\\x8fB4\xc0'
p103
tp104
Rp105
g61
tp106
a(I270000
g1
(g5
S'\xc3\xf5(\\\x8fB4\xc0'
p107
tp108
Rp109
g61
tp110
a(I280000
g1
(g5
S'q=\n\xd7\xa304\xc0'
p111
tp112
Rp113
g61
tp114
a(I290000
g1
(g5
S'\xaeG\xe1z\x14.4\xc0'
p115
tp116
Rp117
g61
tp118
a(I300000
g1
(g5
S'\x9a\x99\x99\x99\x99\x194\xc0'
p119
tp120
Rp121
g1
(g5
S'\x9a\x99\x99\x99\x99\x194\xc0'
p122
tp123
Rp124
tp125
a(I310000
g1
(g5
S'\xa4p=\n\xd7#4\xc0'
p126
tp127
Rp128
g1
(g5
S'\xd7\xa3p=\n\x174\xc0'
p129
tp130
Rp131
tp132
a(I320000
g1
(g5
S'\xe1z\x14\xaeG!4\xc0'
p133
tp134
Rp135
g131
tp136
a(I330000
g1
(g5
S'\x9a\x99\x99\x99\x99\x194\xc0'
p137
tp138
Rp139
g131
tp140
a(I340000
g1
(g5
S'\x14\xaeG\xe1z\x144\xc0'
p141
tp142
Rp143
g1
(g5
S'R\xb8\x1e\x85\xeb\x114\xc0'
p144
tp145
Rp146
tp147
a(I350000
g1
(g5
S'R\xb8\x1e\x85\xeb\x114\xc0'
p148
tp149
Rp150
g1
(g5
S'\x8f\xc2\xf5(\\\x0f4\xc0'
p151
tp152
Rp153
tp154
a(I360000
g1
(g5
S'\x8f\xc2\xf5(\\\x0f4\xc0'
p155
tp156
Rp157
g1
(g5
S'\n\xd7\xa3p=\n4\xc0'
p158
tp159
Rp160
tp161
a(I370000
g1
(g5
S'\x8f\xc2\xf5(\\\x0f4\xc0'
p162
tp163
Rp164
g160
tp165
a(I380000
g1
(g5
S'\xcd\xcc\xcc\xcc\xcc\x0c4\xc0'
p166
tp167
Rp168
g1
(g5
S'\x85\xebQ\xb8\x1e\x054\xc0'
p169
tp170
Rp171
tp172
a(I390000
g1
(g5
S'33333\xf33\xc0'
p173
tp174
Rp175
g1
(g5
S'33333\xf33\xc0'
p176
tp177
Rp178
tp179
a(I400000
g1
(g5
S'{\x14\xaeG\xe1\xfa3\xc0'
p180
tp181
Rp182
g178
tp183
a(I410000
g1
(g5
S'33333\xf33\xc0'
p184
tp185
Rp186
g178
tp187
a(I420000
g1
(g5
S'\\\x8f\xc2\xf5(\xdc3\xc0'
p188
tp189
Rp190
g1
(g5
S'\\\x8f\xc2\xf5(\xdc3\xc0'
p191
tp192
Rp193
tp194
a(I430000
g1
(g5
S'\\\x8f\xc2\xf5(\xdc3\xc0'
p195
tp196
Rp197
g1
(g5
S'\xd7\xa3p=\n\xd73\xc0'
p198
tp199
Rp200
tp201
a(I440000
g1
(g5
S'fffff\xe63\xc0'
p202
tp203
Rp204
g200
tp205
a(I450000
g1
(g5
S'\x9a\x99\x99\x99\x99\xd93\xc0'
p206
tp207
Rp208
g200
tp209
a(I460000
g1
(g5
S'\x8f\xc2\xf5(\\\xcf3\xc0'
p210
tp211
Rp212
g1
(g5
S'\x8f\xc2\xf5(\\\xcf3\xc0'
p213
tp214
Rp215
tp216
a(I470000
g1
(g5
S'\n\xd7\xa3p=\xca3\xc0'
p217
tp218
Rp219
g1
(g5
S'H\xe1z\x14\xae\xc73\xc0'
p220
tp221
Rp222
tp223
a(I480000
g1
(g5
S'{\x14\xaeG\xe1\xba3\xc0'
p224
tp225
Rp226
g1
(g5
S'{\x14\xaeG\xe1\xba3\xc0'
p227
tp228
Rp229
tp230
a(I490000
g1
(g5
S'{\x14\xaeG\xe1\xba3\xc0'
p231
tp232
Rp233
g1
(g5
S'\xf6(\\\x8f\xc2\xb53\xc0'
p234
tp235
Rp236
tp237
a(I500000
g1
(g5
S'H\xe1z\x14\xae\xc73\xc0'
p238
tp239
Rp240
g236
tp241
a(I510000
g1
(g5
S'\xf6(\\\x8f\xc2\xb53\xc0'
p242
tp243
Rp244
g236
tp245
a(I520000
g1
(g5
S'\xaeG\xe1z\x14\xae3\xc0'
p246
tp247
Rp248
g1
(g5
S'\xecQ\xb8\x1e\x85\xab3\xc0'
p249
tp250
Rp251
tp252
a(I530000
g1
(g5
S'\xecQ\xb8\x1e\x85\xab3\xc0'
p253
tp254
Rp255
g1
(g5
S'\xe1z\x14\xaeG\xa13\xc0'
p256
tp257
Rp258
tp259
a(I540000
g1
(g5
S'H\xe1z\x14\xae\x873\xc0'
p260
tp261
Rp262
g1
(g5
S'H\xe1z\x14\xae\x873\xc0'
p263
tp264
Rp265
tp266
a(I550000
g1
(g5
S'\xa4p=\n\xd7c3\xc0'
p267
tp268
Rp269
g1
(g5
S'\xa4p=\n\xd7c3\xc0'
p270
tp271
Rp272
tp273
a(I560000
g1
(g5
S'\xd7\xa3p=\nW3\xc0'
p274
tp275
Rp276
g1
(g5
S'\xd7\xa3p=\nW3\xc0'
p277
tp278
Rp279
tp280
a(I570000
g1
(g5
S'R\xb8\x1e\x85\xebQ3\xc0'
p281
tp282
Rp283
g1
(g5
S'\xcd\xcc\xcc\xcc\xccL3\xc0'
p284
tp285
Rp286
tp287
a(I580000
g1
(g5
S'3333333\xc0'
p288
tp289
Rp290
g1
(g5
S'\xaeG\xe1z\x14.3\xc0'
p291
tp292
Rp293
tp294
a(I590000
g1
(g5
S'\x1f\x85\xebQ\xb8\x1e3\xc0'
p295
tp296
Rp297
g1
(g5
S'\x1f\x85\xebQ\xb8\x1e3\xc0'
p298
tp299
Rp300
tp301
a(I600000
g1
(g5
S'\x85\xebQ\xb8\x1e\x053\xc0'
p302
tp303
Rp304
g1
(g5
S'\x85\xebQ\xb8\x1e\x053\xc0'
p305
tp306
Rp307
tp308
a(I610000
g1
(g5
S'\xf6(\\\x8f\xc2\xf52\xc0'
p309
tp310
Rp311
g1
(g5
S'33333\xf32\xc0'
p312
tp313
Rp314
tp315
a(I620000
g1
(g5
S'\xaeG\xe1z\x14\xee2\xc0'
p316
tp317
Rp318
g1
(g5
S'\xaeG\xe1z\x14\xee2\xc0'
p319
tp320
Rp321
tp322
a(I630000
g1
(g5
S'\xc3\xf5(\\\x8f\xc22\xc0'
p323
tp324
Rp325
g1
(g5
S'\xc3\xf5(\\\x8f\xc22\xc0'
p326
tp327
Rp328
tp329
a(I640000
g1
(g5
S'\x14\xaeG\xe1z\x942\xc0'
p330
tp331
Rp332
g1
(g5
S'\x14\xaeG\xe1z\x942\xc0'
p333
tp334
Rp335
tp336
a(I650000
g1
(g5
S'q=\n\xd7\xa3p2\xc0'
p337
tp338
Rp339
g1
(g5
S'q=\n\xd7\xa3p2\xc0'
p340
tp341
Rp342
tp343
a(I660000
g1
(g5
S'\x8f\xc2\xf5(\\O2\xc0'
p344
tp345
Rp346
g1
(g5
S'\x8f\xc2\xf5(\\O2\xc0'
p347
tp348
Rp349
tp350
a(I670000
g1
(g5
S'fffff&2\xc0'
p351
tp352
Rp353
g1
(g5
S'fffff&2\xc0'
p354
tp355
Rp356
tp357
a(I680000
g1
(g5
S'\xa4p=\n\xd7#2\xc0'
p358
tp359
Rp360
g1
(g5
S'\x1f\x85\xebQ\xb8\x1e2\xc0'
p361
tp362
Rp363
tp364
a(I690000
g1
(g5
S'\xc3\xf5(\\\x8f\x022\xc0'
p365
tp366
Rp367
g1
(g5
S'\xc3\xf5(\\\x8f\x022\xc0'
p368
tp369
Rp370
tp371
a(I700000
g1
(g5
S'\xf6(\\\x8f\xc2\xf51\xc0'
p372
tp373
Rp374
g1
(g5
S'33333\xf31\xc0'
p375
tp376
Rp377
tp378
a(I710000
g1
(g5
S'\xc3\xf5(\\\x8f\xc21\xc0'
p379
tp380
Rp381
g1
(g5
S'\xc3\xf5(\\\x8f\xc21\xc0'
p382
tp383
Rp384
tp385
a(I720000
g1
(g5
S'\xd7\xa3p=\n\x971\xc0'
p386
tp387
Rp388
g1
(g5
S'\xd7\xa3p=\n\x971\xc0'
p389
tp390
Rp391
tp392
a(I730000
g1
(g5
S'\n\xd7\xa3p=\x8a1\xc0'
p393
tp394
Rp395
g1
(g5
S'\n\xd7\xa3p=\x8a1\xc0'
p396
tp397
Rp398
tp399
a(I740000
g1
(g5
S'\xf6(\\\x8f\xc2u1\xc0'
p400
tp401
Rp402
g1
(g5
S'33333s1\xc0'
p403
tp404
Rp405
tp406
a(I750000
g1
(g5
S'\x00\x00\x00\x00\x00@1\xc0'
p407
tp408
Rp409
g1
(g5
S'\x00\x00\x00\x00\x00@1\xc0'
p410
tp411
Rp412
tp413
a(I760000
g1
(g5
S'3333331\xc0'
p414
tp415
Rp416
g1
(g5
S'\xecQ\xb8\x1e\x85+1\xc0'
p417
tp418
Rp419
tp420
a(I770000
g1
(g5
S'H\xe1z\x14\xae\x071\xc0'
p421
tp422
Rp423
g1
(g5
S'H\xe1z\x14\xae\x071\xc0'
p424
tp425
Rp426
tp427
a(I780000
g1
(g5
S'\x1f\x85\xebQ\xb8\xde0\xc0'
p428
tp429
Rp430
g1
(g5
S'\\\x8f\xc2\xf5(\xdc0\xc0'
p431
tp432
Rp433
tp434
a(I790000
g1
(g5
S'\xaeG\xe1z\x14\xae0\xc0'
p435
tp436
Rp437
g1
(g5
S')\\\x8f\xc2\xf5\xa80\xc0'
p438
tp439
Rp440
tp441
a(I800000
g1
(g5
S'\n\xd7\xa3p=\x8a0\xc0'
p442
tp443
Rp444
g1
(g5
S'\n\xd7\xa3p=\x8a0\xc0'
p445
tp446
Rp447
tp448
a(I810000
g1
(g5
S')\\\x8f\xc2\xf5h0\xc0'
p449
tp450
Rp451
g1
(g5
S')\\\x8f\xc2\xf5h0\xc0'
p452
tp453
Rp454
tp455
a(I820000
g1
(g5
S'\x8f\xc2\xf5(\\O0\xc0'
p456
tp457
Rp458
g1
(g5
S'\x8f\xc2\xf5(\\O0\xc0'
p459
tp460
Rp461
tp462
a(I830000
g1
(g5
S'\xc3\xf5(\\\x8fB0\xc0'
p463
tp464
Rp465
g1
(g5
S'\xc3\xf5(\\\x8fB0\xc0'
p466
tp467
Rp468
tp469
a(I840000
g1
(g5
S'\x1f\x85\xebQ\xb8\x1e0\xc0'
p470
tp471
Rp472
g1
(g5
S'\x14\xaeG\xe1z\x140\xc0'
p473
tp474
Rp475
tp476
a(I850000
g1
(g5
S'\x8f\xc2\xf5(\\\x0f0\xc0'
p477
tp478
Rp479
g1
(g5
S'\x8f\xc2\xf5(\\\x0f0\xc0'
p480
tp481
Rp482
tp483
a(I860000
g1
(g5
S'\xc3\xf5(\\\x8f\xc2/\xc0'
p484
tp485
Rp486
g1
(g5
S'\xc3\xf5(\\\x8f\xc2/\xc0'
p487
tp488
Rp489
tp490
a(I870000
g1
(g5
S'\x00\x00\x00\x00\x00\x80/\xc0'
p491
tp492
Rp493
g1
(g5
S'\x00\x00\x00\x00\x00\x80/\xc0'
p494
tp495
Rp496
tp497
a(I880000
g1
(g5
S'\n\xd7\xa3p=\x8a/\xc0'
p498
tp499
Rp500
g1
(g5
S'q=\n\xd7\xa3p/\xc0'
p501
tp502
Rp503
tp504
a(I890000
g1
(g5
S'\\\x8f\xc2\xf5(\\/\xc0'
p505
tp506
Rp507
g1
(g5
S'\\\x8f\xc2\xf5(\\/\xc0'
p508
tp509
Rp510
tp511
a(I900000
g1
(g5
S'\x1f\x85\xebQ\xb8\x1e/\xc0'
p512
tp513
Rp514
g1
(g5
S'\x8f\xc2\xf5(\\\x0f/\xc0'
p515
tp516
Rp517
tp518
a(I910000
g1
(g5
S'\xaeG\xe1z\x14\xae.\xc0'
p519
tp520
Rp521
g1
(g5
S'\xaeG\xe1z\x14\xae.\xc0'
p522
tp523
Rp524
tp525
a(I920000
g1
(g5
S'\xaeG\xe1z\x14..\xc0'
p526
tp527
Rp528
g1
(g5
S'\xaeG\xe1z\x14..\xc0'
p529
tp530
Rp531
tp532
a(I930000
g1
(g5
S'=\n\xd7\xa3p\xbd-\xc0'
p533
tp534
Rp535
g1
(g5
S'=\n\xd7\xa3p\xbd-\xc0'
p536
tp537
Rp538
tp539
a(I940000
g1
(g5
S'\xb8\x1e\x85\xebQ8-\xc0'
p540
tp541
Rp542
g1
(g5
S'\xb8\x1e\x85\xebQ8-\xc0'
p543
tp544
Rp545
tp546
a(I950000
g1
(g5
S'\xecQ\xb8\x1e\x85\xeb,\xc0'
p547
tp548
Rp549
g1
(g5
S'\xecQ\xb8\x1e\x85\xeb,\xc0'
p550
tp551
Rp552
tp553
a(I960000
g1
(g5
S'\x1f\x85\xebQ\xb8\x9e,\xc0'
p554
tp555
Rp556
g1
(g5
S'\x1f\x85\xebQ\xb8\x9e,\xc0'
p557
tp558
Rp559
tp560
a(I970000
g1
(g5
S'\x8f\xc2\xf5(\\\x0f,\xc0'
p561
tp562
Rp563
g1
(g5
S'\x8f\xc2\xf5(\\\x0f,\xc0'
p564
tp565
Rp566
tp567
a(I980000
g1
(g5
S'=\n\xd7\xa3p=+\xc0'
p568
tp569
Rp570
g1
(g5
S'=\n\xd7\xa3p=+\xc0'
p571
tp572
Rp573
tp574
a(I990000
g1
(g5
S'\xb8\x1e\x85\xebQ\xb8*\xc0'
p575
tp576
Rp577
g1
(g5
S'\xb8\x1e\x85\xebQ\xb8*\xc0'
p578
tp579
Rp580
tp581
a(I1000000
g1
(g5
S'\x1f\x85\xebQ\xb8\x9e*\xc0'
p582
tp583
Rp584
g1
(g5
S'\x9a\x99\x99\x99\x99\x99*\xc0'
p585
tp586
Rp587
tp588
a(I1010000
g1
(g5
S'ffffff*\xc0'
p589
tp590
Rp591
g1
(g5
S'\xe1z\x14\xaeGa*\xc0'
p592
tp593
Rp594
tp595
a(I1020000
g1
(g5
S'\xb8\x1e\x85\xebQ8*\xc0'
p596
tp597
Rp598
g1
(g5
S'\xa4p=\n\xd7#*\xc0'
p599
tp600
Rp601
tp602
a(I1030000
g1
(g5
S'\xf6(\\\x8f\xc2\xf5)\xc0'
p603
tp604
Rp605
g1
(g5
S'\xf6(\\\x8f\xc2\xf5)\xc0'
p606
tp607
Rp608
tp609
a(I1040000
g1
(g5
S'R\xb8\x1e\x85\xebQ)\xc0'
p610
tp611
Rp612
g1
(g5
S'R\xb8\x1e\x85\xebQ)\xc0'
p613
tp614
Rp615
tp616
a(I1050000
g1
(g5
S'H\xe1z\x14\xae\xc7(\xc0'
p617
tp618
Rp619
g1
(g5
S'H\xe1z\x14\xae\xc7(\xc0'
p620
tp621
Rp622
tp623
a(I1060000
g1
(g5
S'\x9a\x99\x99\x99\x99\x99(\xc0'
p624
tp625
Rp626
g1
(g5
S'\x9a\x99\x99\x99\x99\x99(\xc0'
p627
tp628
Rp629
tp630
a(I1070000
g1
(g5
S'\xa4p=\n\xd7#(\xc0'
p631
tp632
Rp633
g1
(g5
S'\xa4p=\n\xd7#(\xc0'
p634
tp635
Rp636
tp637
a(I1080000
g1
(g5
S"ffffff'\xc0"
p638
tp639
Rp640
g1
(g5
S"ffffff'\xc0"
p641
tp642
Rp643
tp644
a(I1090000
g1
(g5
S"\n\xd7\xa3p=\n'\xc0"
p645
tp646
Rp647
g1
(g5
S"\n\xd7\xa3p=\n'\xc0"
p648
tp649
Rp650
tp651
a(I1100000
g1
(g5
S'\x85\xebQ\xb8\x1e\x85&\xc0'
p652
tp653
Rp654
g1
(g5
S'\x85\xebQ\xb8\x1e\x85&\xc0'
p655
tp656
Rp657
tp658
a(I1110000
g1
(g5
S'\xaeG\xe1z\x14.&\xc0'
p659
tp660
Rp661
g1
(g5
S'\x9a\x99\x99\x99\x99\x19&\xc0'
p662
tp663
Rp664
tp665
a(I1120000
g1
(g5
S'\x14\xaeG\xe1z\x14&\xc0'
p666
tp667
Rp668
g1
(g5
S'\x00\x00\x00\x00\x00\x00&\xc0'
p669
tp670
Rp671
tp672
a(I1130000
g1
(g5
S'\xd7\xa3p=\nW%\xc0'
p673
tp674
Rp675
g1
(g5
S'\xd7\xa3p=\nW%\xc0'
p676
tp677
Rp678
tp679
a(I1140000
g1
(g5
S'\xd7\xa3p=\n\xd7$\xc0'
p680
tp681
Rp682
g1
(g5
S'\xd7\xa3p=\n\xd7$\xc0'
p683
tp684
Rp685
tp686
a(I1150000
g1
(g5
S'{\x14\xaeG\xe1\xfa#\xc0'
p687
tp688
Rp689
g1
(g5
S'{\x14\xaeG\xe1\xfa#\xc0'
p690
tp691
Rp692
tp693
a(I1160000
g1
(g5
S'H\xe1z\x14\xae\xc7#\xc0'
p694
tp695
Rp696
g1
(g5
S'H\xe1z\x14\xae\xc7#\xc0'
p697
tp698
Rp699
tp700
a(I1170000
g1
(g5
S'\x14\xaeG\xe1z\x94#\xc0'
p701
tp702
Rp703
g1
(g5
S'\n\xd7\xa3p=\x8a#\xc0'
p704
tp705
Rp706
tp707
a(I1180000
g1
(g5
S'\n\xd7\xa3p=\n#\xc0'
p708
tp709
Rp710
g1
(g5
S'\n\xd7\xa3p=\n#\xc0'
p711
tp712
Rp713
tp714
a(I1190000
g1
(g5
S'\xc3\xf5(\\\x8fB#\xc0'
p715
tp716
Rp717
g713
tp718
a(I1200000
g1
(g5
S'\x9a\x99\x99\x99\x99\x19#\xc0'
p719
tp720
Rp721
g713
tp722
a(I1210000
g1
(g5
S'R\xb8\x1e\x85\xeb\xd1"\xc0'
p723
tp724
Rp725
g1
(g5
S'R\xb8\x1e\x85\xeb\xd1"\xc0'
p726
tp727
Rp728
tp729
a(I1220000
g1
(g5
S'\x00\x00\x00\x00\x00\x00#\xc0'
p730
tp731
Rp732
g728
tp733
a(I1230000
g1
(g5
S'\x85\xebQ\xb8\x1e\x85"\xc0'
p734
tp735
Rp736
g1
(g5
S'\x85\xebQ\xb8\x1e\x85"\xc0'
p737
tp738
Rp739
tp740
a(I1240000
g1
(g5
S'\x85\xebQ\xb8\x1e\x85"\xc0'
p741
tp742
Rp743
g1
(g5
S'\xf6(\\\x8f\xc2u"\xc0'
p744
tp745
Rp746
tp747
a(I1250000
g1
(g5
S'\x1f\x85\xebQ\xb8\x9e"\xc0'
p748
tp749
Rp750
g746
tp751
a(I1260000
g1
(g5
S'\xf6(\\\x8f\xc2\xf5!\xc0'
p752
tp753
Rp754
g1
(g5
S'\xf6(\\\x8f\xc2\xf5!\xc0'
p755
tp756
Rp757
tp758
a(I1270000
g1
(g5
S'\x85\xebQ\xb8\x1e\x85!\xc0'
p759
tp760
Rp761
g1
(g5
S'\x85\xebQ\xb8\x1e\x85!\xc0'
p762
tp763
Rp764
tp765
a(I1280000
g1
(g5
S'H\xe1z\x14\xaeG!\xc0'
p766
tp767
Rp768
g1
(g5
S'\xb8\x1e\x85\xebQ8!\xc0'
p769
tp770
Rp771
tp772
a(I1290000
g1
(g5
S'H\xe1z\x14\xaeG \xc0'
p773
tp774
Rp775
g1
(g5
S'H\xe1z\x14\xaeG \xc0'
p776
tp777
Rp778
tp779
a(I1300000
g1
(g5
S'\xe1z\x14\xaeG\xe1\x1f\xc0'
p780
tp781
Rp782
g1
(g5
S'\xe1z\x14\xaeG\xe1\x1f\xc0'
p783
tp784
Rp785
tp786
a(I1310000
g1
(g5
S'\xc3\xf5(\\\x8f\xc2\x1e\xc0'
p787
tp788
Rp789
g1
(g5
S'\xc3\xf5(\\\x8f\xc2\x1e\xc0'
p790
tp791
Rp792
tp793
a(I1320000
g1
(g5
S')\\\x8f\xc2\xf5(\x1e\xc0'
p794
tp795
Rp796
g1
(g5
S')\\\x8f\xc2\xf5(\x1e\xc0'
p797
tp798
Rp799
tp800
a(I1330000
g1
(g5
S'\xc3\xf5(\\\x8f\xc2\x1d\xc0'
p801
tp802
Rp803
g1
(g5
S'\xc3\xf5(\\\x8f\xc2\x1d\xc0'
p804
tp805
Rp806
tp807
a(I1340000
g1
(g5
S'=\n\xd7\xa3p=\x1d\xc0'
p808
tp809
Rp810
g1
(g5
S'333333\x1d\xc0'
p811
tp812
Rp813
tp814
a(I1350000
g1
(g5
S'\xb8\x1e\x85\xebQ\xb8\x1c\xc0'
p815
tp816
Rp817
g1
(g5
S'\xb8\x1e\x85\xebQ\xb8\x1c\xc0'
p818
tp819
Rp820
tp821
a(I1360000
g1
(g5
S'\x8f\xc2\xf5(\\\x8f\x1b\xc0'
p822
tp823
Rp824
g1
(g5
S'{\x14\xaeG\xe1z\x1b\xc0'
p825
tp826
Rp827
tp828
a(I1370000
g1
(g5
S'\xb8\x1e\x85\xebQ\xb8\x1a\xc0'
p829
tp830
Rp831
g1
(g5
S'\xb8\x1e\x85\xebQ\xb8\x1a\xc0'
p832
tp833
Rp834
tp835
a(I1380000
g1
(g5
S'\xcd\xcc\xcc\xcc\xcc\xcc\x1a\xc0'
p836
tp837
Rp838
g1
(g5
S'\\\x8f\xc2\xf5(\\\x1a\xc0'
p839
tp840
Rp841
tp842
a(I1390000
g1
(g5
S'\xe1z\x14\xaeG\xe1\x19\xc0'
p843
tp844
Rp845
g1
(g5
S'\xcd\xcc\xcc\xcc\xcc\xcc\x19\xc0'
p846
tp847
Rp848
tp849
a(I1400000
g1
(g5
S'\x1f\x85\xebQ\xb8\x1e\x18\xc0'
p850
tp851
Rp852
g1
(g5
S'\x1f\x85\xebQ\xb8\x1e\x18\xc0'
p853
tp854
Rp855
tp856
a(I1410000
g1
(g5
S'ffffff\x17\xc0'
p857
tp858
Rp859
g1
(g5
S'ffffff\x17\xc0'
p860
tp861
Rp862
tp863
a(I1420000
g1
(g5
S'\xecQ\xb8\x1e\x85\xeb\x15\xc0'
p864
tp865
Rp866
g1
(g5
S'\xecQ\xb8\x1e\x85\xeb\x15\xc0'
p867
tp868
Rp869
tp870
a(I1430000
g1
(g5
S'\\\x8f\xc2\xf5(\\\x14\xc0'
p871
tp872
Rp873
g1
(g5
S'\\\x8f\xc2\xf5(\\\x14\xc0'
p874
tp875
Rp876
tp877
a(I1440000
g1
(g5
S'\xcd\xcc\xcc\xcc\xcc\xcc\x13\xc0'
p878
tp879
Rp880
g1
(g5
S'\x8f\xc2\xf5(\\\x8f\x13\xc0'
p881
tp882
Rp883
tp884
a(I1450000
g1
(g5
S'\x1f\x85\xebQ\xb8\x1e\x12\xc0'
p885
tp886
Rp887
g1
(g5
S'\x1f\x85\xebQ\xb8\x1e\x12\xc0'
p888
tp889
Rp890
tp891
a(I1460000
g1
(g5
S'\n\xd7\xa3p=\n\x10\xc0'
p892
tp893
Rp894
g1
(g5
S'\n\xd7\xa3p=\n\x10\xc0'
p895
tp896
Rp897
tp898
a(I1470000
g1
(g5
S'H\xe1z\x14\xaeG\x0b\xc0'
p899
tp900
Rp901
g1
(g5
S'H\xe1z\x14\xaeG\x0b\xc0'
p902
tp903
Rp904
tp905
a(I1480000
g1
(g5
S'{\x14\xaeG\xe1z\x08\xc0'
p906
tp907
Rp908
g1
(g5
S'{\x14\xaeG\xe1z\x08\xc0'
p909
tp910
Rp911
tp912
a(I1490000
g1
(g5
S'R\xb8\x1e\x85\xebQ\x04\xc0'
p913
tp914
Rp915
g1
(g5
S'R\xb8\x1e\x85\xebQ\x04\xc0'
p916
tp917
Rp918
tp919
a(I1500000
g1
(g5
S'\xa4p=\n\xd7\xa3\x00\xc0'
p920
tp921
Rp922
g1
(g5
S'\xa4p=\n\xd7\xa3\x00\xc0'
p923
tp924
Rp925
tp926
a(I1510000
g1
(g5
S'\xc3\xf5(\\\x8f\xc2\xf9\xbf'
p927
tp928
Rp929
g1
(g5
S'\xc3\xf5(\\\x8f\xc2\xf9\xbf'
p930
tp931
Rp932
tp933
a(I1520000
g1
(g5
S'\xb8\x1e\x85\xebQ\xb8\xee\xbf'
p934
tp935
Rp936
g1
(g5
S'\xb8\x1e\x85\xebQ\xb8\xee\xbf'
p937
tp938
Rp939
tp940
a(I1530000
g1
(g5
S'\xe1z\x14\xaeG\xe1\xe2\xbf'
p941
tp942
Rp943
g1
(g5
S'\xe1z\x14\xaeG\xe1\xe2\xbf'
p944
tp945
Rp946
tp947
a(I1540000
g1
(g5
S'R\xb8\x1e\x85\xebQ\xc8?'
p948
tp949
Rp950
g1
(g5
S'R\xb8\x1e\x85\xebQ\xc8?'
p951
tp952
Rp953
tp954
a(I1550000
g1
(g5
S'R\xb8\x1e\x85\xebQ\xc8?'
p955
tp956
Rp957
g1
(g5
S'\xc3\xf5(\\\x8f\xc2\xd5?'
p958
tp959
Rp960
tp961
a(I1560000
g1
(g5
S'\\\x8f\xc2\xf5(\\\xdf?'
p962
tp963
Rp964
g1
(g5
S'\\\x8f\xc2\xf5(\\\xdf?'
p965
tp966
Rp967
tp968
a(I1570000
g1
(g5
S')\\\x8f\xc2\xf5(\xe4?'
p969
tp970
Rp971
g1
(g5
S'q=\n\xd7\xa3p\xe5?'
p972
tp973
Rp974
tp975
a(I1580000
g1
(g5
S'333333\xe3?'
p976
tp977
Rp978
g1
(g5
S'\\\x8f\xc2\xf5(\\\xe7?'
p979
tp980
Rp981
tp982
a(I1590000
g1
(g5
S'\\\x8f\xc2\xf5(\\\xf3?'
p983
tp984
Rp985
g1
(g5
S'\\\x8f\xc2\xf5(\\\xf3?'
p986
tp987
Rp988
tp989
a(I1600000
g1
(g5
S'\xe1z\x14\xaeG\xe1\xf6?'
p990
tp991
Rp992
g1
(g5
S'\xe1z\x14\xaeG\xe1\xf6?'
p993
tp994
Rp995
tp996
a(I1610000
g1
(g5
S'\xb8\x1e\x85\xebQ\xb8\xfe?'
p997
tp998
Rp999
g1
(g5
S'\xb8\x1e\x85\xebQ\xb8\xfe?'
p1000
tp1001
Rp1002
tp1003
a(I1620000
g1
(g5
S'\xecQ\xb8\x1e\x85\xeb\x01@'
p1004
tp1005
Rp1006
g1
(g5
S'\xecQ\xb8\x1e\x85\xeb\x01@'
p1007
tp1008
Rp1009
tp1010
a(I1630000
g1
(g5
S'R\xb8\x1e\x85\xebQ\x08@'
p1011
tp1012
Rp1013
g1
(g5
S'R\xb8\x1e\x85\xebQ\x08@'
p1014
tp1015
Rp1016
tp1017
a(I1640000
g1
(g5
S'=\n\xd7\xa3p=\x0c@'
p1018
tp1019
Rp1020
g1
(g5
S'=\n\xd7\xa3p=\x0c@'
p1021
tp1022
Rp1023
tp1024
a(I1650000
g1
(g5
S'H\xe1z\x14\xaeG\x10@'
p1025
tp1026
Rp1027
g1
(g5
S'H\xe1z\x14\xaeG\x10@'
p1028
tp1029
Rp1030
tp1031
a(I1660000
g1
(g5
S'\xb8\x1e\x85\xebQ\xb8\x12@'
p1032
tp1033
Rp1034
g1
(g5
S'\xb8\x1e\x85\xebQ\xb8\x12@'
p1035
tp1036
Rp1037
tp1038
a(I1670000
g1
(g5
S'\xf6(\\\x8f\xc2\xf5\x15@'
p1039
tp1040
Rp1041
g1
(g5
S'\xf6(\\\x8f\xc2\xf5\x15@'
p1042
tp1043
Rp1044
tp1045
a(I1680000
g1
(g5
S'\n\xd7\xa3p=\n\x17@'
p1046
tp1047
Rp1048
g1
(g5
S'\n\xd7\xa3p=\n\x17@'
p1049
tp1050
Rp1051
tp1052
a(I1690000
g1
(g5
S'\x8f\xc2\xf5(\\\x8f\x18@'
p1053
tp1054
Rp1055
g1
(g5
S'\x8f\xc2\xf5(\\\x8f\x18@'
p1056
tp1057
Rp1058
tp1059
a(I1700000
g1
(g5
S'\x00\x00\x00\x00\x00\x00\x1b@'
p1060
tp1061
Rp1062
g1
(g5
S'\x00\x00\x00\x00\x00\x00\x1b@'
p1063
tp1064
Rp1065
tp1066
a(I1710000
g1
(g5
S'\x85\xebQ\xb8\x1e\x85\x1c@'
p1067
tp1068
Rp1069
g1
(g5
S'\x85\xebQ\xb8\x1e\x85\x1c@'
p1070
tp1071
Rp1072
tp1073
a(I1720000
g1
(g5
S'\xc3\xf5(\\\x8f\xc2\x1f@'
p1074
tp1075
Rp1076
g1
(g5
S'\xc3\xf5(\\\x8f\xc2\x1f@'
p1077
tp1078
Rp1079
tp1080
a(I1730000
g1
(g5
S'\x85\xebQ\xb8\x1e\x85 @'
p1081
tp1082
Rp1083
g1
(g5
S'\x85\xebQ\xb8\x1e\x85 @'
p1084
tp1085
Rp1086
tp1087
a(I1740000
g1
(g5
S'\xe1z\x14\xaeG\xe1 @'
p1088
tp1089
Rp1090
g1
(g5
S'\xf6(\\\x8f\xc2\xf5 @'
p1091
tp1092
Rp1093
tp1094
a(I1750000
g1
(g5
S'\xa4p=\n\xd7\xa3!@'
p1095
tp1096
Rp1097
g1
(g5
S'\xa4p=\n\xd7\xa3!@'
p1098
tp1099
Rp1100
tp1101
a(I1760000
g1
(g5
S'\x00\x00\x00\x00\x00\x00"@'
p1102
tp1103
Rp1104
g1
(g5
S'\x14\xaeG\xe1z\x14"@'
p1105
tp1106
Rp1107
tp1108
a(I1770000
g1
(g5
S')\\\x8f\xc2\xf5\xa8"@'
p1109
tp1110
Rp1111
g1
(g5
S'33333\xb3"@'
p1112
tp1113
Rp1114
tp1115
a(I1780000
g1
(g5
S'\xb8\x1e\x85\xebQ8#@'
p1116
tp1117
Rp1118
g1
(g5
S'\xb8\x1e\x85\xebQ8#@'
p1119
tp1120
Rp1121
tp1122
a(I1790000
g1
(g5
S'\x9a\x99\x99\x99\x99\x99#@'
p1123
tp1124
Rp1125
g1
(g5
S'\x9a\x99\x99\x99\x99\x99#@'
p1126
tp1127
Rp1128
tp1129
a(I1800000
g1
(g5
S')\\\x8f\xc2\xf5($@'
p1130
tp1131
Rp1132
g1
(g5
S')\\\x8f\xc2\xf5($@'
p1133
tp1134
Rp1135
tp1136
a(I1810000
g1
(g5
S'\xf6(\\\x8f\xc2\xf5#@'
p1137
tp1138
Rp1139
g1135
tp1140
a(I1820000
g1
(g5
S'q=\n\xd7\xa3p%@'
p1141
tp1142
Rp1143
g1
(g5
S'q=\n\xd7\xa3p%@'
p1144
tp1145
Rp1146
tp1147
a(I1830000
g1
(g5
S'\xe1z\x14\xaeGa&@'
p1148
tp1149
Rp1150
g1
(g5
S'q=\n\xd7\xa3p&@'
p1151
tp1152
Rp1153
tp1154
a(I1840000
g1
(g5
S"333333'@"
p1155
tp1156
Rp1157
g1
(g5
S"333333'@"
p1158
tp1159
Rp1160
tp1161
a(I1850000
g1
(g5
S'\x9a\x99\x99\x99\x99\x19(@'
p1162
tp1163
Rp1164
g1
(g5
S'\x9a\x99\x99\x99\x99\x19(@'
p1165
tp1166
Rp1167
tp1168
a(I1860000
g1
(g5
S'\n\xd7\xa3p=\x8a(@'
p1169
tp1170
Rp1171
g1
(g5
S'\n\xd7\xa3p=\x8a(@'
p1172
tp1173
Rp1174
tp1175
a(I1870000
g1
(g5
S'\xaeG\xe1z\x14.)@'
p1176
tp1177
Rp1178
g1
(g5
S'\xaeG\xe1z\x14.)@'
p1179
tp1180
Rp1181
tp1182
a(I1880000
g1
(g5
S'\xa4p=\n\xd7\xa3)@'
p1183
tp1184
Rp1185
g1
(g5
S'\xa4p=\n\xd7\xa3)@'
p1186
tp1187
Rp1188
tp1189
a(I1890000
g1
(g5
S'\xcd\xcc\xcc\xcc\xcc\xcc)@'
p1190
tp1191
Rp1192
g1
(g5
S'\xcd\xcc\xcc\xcc\xcc\xcc)@'
p1193
tp1194
Rp1195
tp1196
a(I1900000
g1
(g5
S'\x00\x00\x00\x00\x00\x00*@'
p1197
tp1198
Rp1199
g1
(g5
S'\x9a\x99\x99\x99\x99\x19*@'
p1200
tp1201
Rp1202
tp1203
a(I1910000
g1
(g5
S'q=\n\xd7\xa3p*@'
p1204
tp1205
Rp1206
g1
(g5
S'q=\n\xd7\xa3p*@'
p1207
tp1208
Rp1209
tp1210
a(I1920000
g1
(g5
S'\xa4p=\n\xd7\xa3*@'
p1211
tp1212
Rp1213
g1
(g5
S'\xb8\x1e\x85\xebQ\xb8*@'
p1214
tp1215
Rp1216
tp1217
a(I1930000
g1
(g5
S'{\x14\xaeG\xe1\xfa*@'
p1218
tp1219
Rp1220
g1
(g5
S'\x9a\x99\x99\x99\x99\x19+@'
p1221
tp1222
Rp1223
tp1224
a(I1940000
g1
(g5
S'\xcd\xcc\xcc\xcc\xccL+@'
p1225
tp1226
Rp1227
g1
(g5
S'\xcd\xcc\xcc\xcc\xccL+@'
p1228
tp1229
Rp1230
tp1231
a(I1950000
g1
(g5
S'\xf6(\\\x8f\xc2u+@'
p1232
tp1233
Rp1234
g1
(g5
S'\xf6(\\\x8f\xc2u+@'
p1235
tp1236
Rp1237
tp1238
a(I1960000
g1
(g5
S'33333\xb3+@'
p1239
tp1240
Rp1241
g1
(g5
S'33333\xb3+@'
p1242
tp1243
Rp1244
tp1245
a(I1970000
g1
(g5
S'\xb8\x1e\x85\xebQ\xb8+@'
p1246
tp1247
Rp1248
g1
(g5
S'=\n\xd7\xa3p\xbd+@'
p1249
tp1250
Rp1251
tp1252
a(I1980000
g1
(g5
S'\xecQ\xb8\x1e\x85k+@'
p1253
tp1254
Rp1255
g1251
tp1256
a(I1990000
g1
(g5
S'\xaeG\xe1z\x14\xae+@'
p1257
tp1258
Rp1259
g1251
tp1260
a(I2000000
g1
(g5
S'\xb8\x1e\x85\xebQ\xb8+@'
p1261
tp1262
Rp1263
g1251
tp1264
a(I2010000
g1
(g5
S'{\x14\xaeG\xe1\xfa+@'
p1265
tp1266
Rp1267
g1
(g5
S'{\x14\xaeG\xe1\xfa+@'
p1268
tp1269
Rp1270
tp1271
a(I2020000
g1
(g5
S'\xb8\x1e\x85\xebQ8,@'
p1272
tp1273
Rp1274
g1
(g5
S'H\xe1z\x14\xaeG,@'
p1275
tp1276
Rp1277
tp1278
a(I2030000
g1
(g5
S'H\xe1z\x14\xaeG,@'
p1279
tp1280
Rp1281
g1277
tp1282
a(I2040000
g1
(g5
S'\xd7\xa3p=\nW,@'
p1283
tp1284
Rp1285
g1
(g5
S'ffffff,@'
p1286
tp1287
Rp1288
tp1289
a(I2050000
g1
(g5
S'\xaeG\xe1z\x14\xae,@'
p1290
tp1291
Rp1292
g1
(g5
S'\xaeG\xe1z\x14\xae,@'
p1293
tp1294
Rp1295
tp1296
a(I2060000
g1
(g5
S'333333-@'
p1297
tp1298
Rp1299
g1
(g5
S'\xc3\xf5(\\\x8fB-@'
p1300
tp1301
Rp1302
tp1303
a(I2070000
g1
(g5
S'\xecQ\xb8\x1e\x85k-@'
p1304
tp1305
Rp1306
g1
(g5
S'\xecQ\xb8\x1e\x85k-@'
p1307
tp1308
Rp1309
tp1310
a(I2080000
g1
(g5
S'fffff\xe6-@'
p1311
tp1312
Rp1313
g1
(g5
S'\xecQ\xb8\x1e\x85\xeb-@'
p1314
tp1315
Rp1316
tp1317
a(I2090000
g1
(g5
S'\x14\xaeG\xe1z\x14.@'
p1318
tp1319
Rp1320
g1
(g5
S'\xc3\xf5(\\\x8fB.@'
p1321
tp1322
Rp1323
tp1324
a(I2100000
g1
(g5
S'\xf6(\\\x8f\xc2\xf5-@'
p1325
tp1326
Rp1327
g1323
tp1328
a(I2110000
g1
(g5
S'\x00\x00\x00\x00\x00\x00.@'
p1329
tp1330
Rp1331
g1323
tp1332
a(I2120000
g1
(g5
S'H\xe1z\x14\xae\xc7-@'
p1333
tp1334
Rp1335
g1323
tp1336
a(I2130000
g1
(g5
S'33333\xb3-@'
p1337
tp1338
Rp1339
g1323
tp1340
a(I2140000
g1
(g5
S'\xa4p=\n\xd7\xa3-@'
p1341
tp1342
Rp1343
g1323
tp1344
a(I2150000
g1
(g5
S'\xd7\xa3p=\n\xd7-@'
p1345
tp1346
Rp1347
g1323
tp1348
a(I2160000
g1
(g5
S'\x8f\xc2\xf5(\\\x0f.@'
p1349
tp1350
Rp1351
g1323
tp1352
a(I2170000
g1
(g5
S'333333.@'
p1353
tp1354
Rp1355
g1323
tp1356
a(I2180000
g1
(g5
S'\x85\xebQ\xb8\x1e\x85.@'
p1357
tp1358
Rp1359
g1
(g5
S'\x85\xebQ\xb8\x1e\x85.@'
p1360
tp1361
Rp1362
tp1363
a(I2190000
g1
(g5
S'\n\xd7\xa3p=\x8a.@'
p1364
tp1365
Rp1366
g1
(g5
S')\\\x8f\xc2\xf5\xa8.@'
p1367
tp1368
Rp1369
tp1370
a(I2200000
g1
(g5
S'\x9a\x99\x99\x99\x99\x99.@'
p1371
tp1372
Rp1373
g1369
tp1374
a(I2210000
g1
(g5
S'33333\xb3.@'
p1375
tp1376
Rp1377
g1
(g5
S'33333\xb3.@'
p1378
tp1379
Rp1380
tp1381
a(I2220000
g1
(g5
S'\xaeG\xe1z\x14./@'
p1382
tp1383
Rp1384
g1
(g5
S'\xaeG\xe1z\x14./@'
p1385
tp1386
Rp1387
tp1388
a(I2230000
g1
(g5
S'R\xb8\x1e\x85\xebQ/@'
p1389
tp1390
Rp1391
g1
(g5
S'R\xb8\x1e\x85\xebQ/@'
p1392
tp1393
Rp1394
tp1395
a(I2240000
g1
(g5
S'H\xe1z\x14\xaeG/@'
p1396
tp1397
Rp1398
g1
(g5
S'ffffff/@'
p1399
tp1400
Rp1401
tp1402
a(I2250000
g1
(g5
S'\\\x8f\xc2\xf5(\\/@'
p1403
tp1404
Rp1405
g1401
tp1406
a(I2260000
g1
(g5
S'R\xb8\x1e\x85\xeb\xd1/@'
p1407
tp1408
Rp1409
g1
(g5
S'R\xb8\x1e\x85\xeb\xd1/@'
p1410
tp1411
Rp1412
tp1413
a(I2270000
g1
(g5
S'\xcd\xcc\xcc\xcc\xcc\x0c0@'
p1414
tp1415
Rp1416
g1
(g5
S'\xcd\xcc\xcc\xcc\xcc\x0c0@'
p1417
tp1418
Rp1419
tp1420
a(I2280000
g1
(g5
S'\\\x8f\xc2\xf5(\x1c0@'
p1421
tp1422
Rp1423
g1
(g5
S'\x1f\x85\xebQ\xb8\x1e0@'
p1424
tp1425
Rp1426
tp1427
a(I2290000
g1
(g5
S'fffff&0@'
p1428
tp1429
Rp1430
g1
(g5
S'fffff&0@'
p1431
tp1432
Rp1433
tp1434
a(I2300000
g1
(g5
S'\xb8\x1e\x85\xebQ80@'
p1435
tp1436
Rp1437
g1
(g5
S'{\x14\xaeG\xe1:0@'
p1438
tp1439
Rp1440
tp1441
a(I2310000
g1
(g5
S'\xaeG\xe1z\x14.0@'
p1442
tp1443
Rp1444
g1440
tp1445
a(I2320000
g1
(g5
S'\xa4p=\n\xd7#0@'
p1446
tp1447
Rp1448
g1440
tp1449
a(I2330000
g1
(g5
S'\n\xd7\xa3p=J0@'
p1450
tp1451
Rp1452
g1
(g5
S'\n\xd7\xa3p=J0@'
p1453
tp1454
Rp1455
tp1456
a(I2340000
g1
(g5
S'\n\xd7\xa3p=J0@'
p1457
tp1458
Rp1459
g1455
tp1460
a(I2350000
g1
(g5
S'\x85\xebQ\xb8\x1e\x850@'
p1461
tp1462
Rp1463
g1
(g5
S'\x85\xebQ\xb8\x1e\x850@'
p1464
tp1465
Rp1466
tp1467
a(I2360000
g1
(g5
S'\xf6(\\\x8f\xc2\xb50@'
p1468
tp1469
Rp1470
g1
(g5
S'\xf6(\\\x8f\xc2\xb50@'
p1471
tp1472
Rp1473
tp1474
a(I2370000
g1
(g5
S'R\xb8\x1e\x85\xeb\xd10@'
p1475
tp1476
Rp1477
g1
(g5
S'R\xb8\x1e\x85\xeb\xd10@'
p1478
tp1479
Rp1480
tp1481
a(I2380000
g1
(g5
S'{\x14\xaeG\xe1\xfa0@'
p1482
tp1483
Rp1484
g1
(g5
S'{\x14\xaeG\xe1\xfa0@'
p1485
tp1486
Rp1487
tp1488
a(I2390000
g1
(g5
S'\xcd\xcc\xcc\xcc\xcc\x0c1@'
p1489
tp1490
Rp1491
g1
(g5
S'\xcd\xcc\xcc\xcc\xcc\x0c1@'
p1492
tp1493
Rp1494
tp1495
a(I2400000
g1
(g5
S'H\xe1z\x14\xae\x071@'
p1496
tp1497
Rp1498
g1
(g5
S'R\xb8\x1e\x85\xeb\x111@'
p1499
tp1500
Rp1501
tp1502
a(I2410000
g1
(g5
S'\x14\xaeG\xe1z\x141@'
p1503
tp1504
Rp1505
g1
(g5
S'\xd7\xa3p=\n\x171@'
p1506
tp1507
Rp1508
tp1509
a(I2420000
g1
(g5
S'\xd7\xa3p=\n\x171@'
p1510
tp1511
Rp1512
g1
(g5
S'\xecQ\xb8\x1e\x85+1@'
p1513
tp1514
Rp1515
tp1516
a(I2430000
g1
(g5
S'\x9a\x99\x99\x99\x99\xd90@'
p1517
tp1518
Rp1519
g1515
tp1520
a(I2440000
g1
(g5
S'H\xe1z\x14\xae\xc70@'
p1521
tp1522
Rp1523
g1515
tp1524
a(I2450000
g1
(g5
S'\xcd\xcc\xcc\xcc\xcc\x8c0@'
p1525
tp1526
Rp1527
g1515
tp1528
a(I2460000
g1
(g5
S'\\\x8f\xc2\xf5(\x9c0@'
p1529
tp1530
Rp1531
g1515
tp1532
a(I2470000
g1
(g5
S'\xf6(\\\x8f\xc2u0@'
p1533
tp1534
Rp1535
g1515
tp1536
a(I2480000
g1
(g5
S'\\\x8f\xc2\xf5(\x1c0@'
p1537
tp1538
Rp1539
g1515
tp1540
a(I2490000
g1
(g5
S'\xc3\xf5(\\\x8f\x020@'
p1541
tp1542
Rp1543
g1515
tp1544
a(I2500000
g1
(g5
S'\xb8\x1e\x85\xebQ\xb8/@'
p1545
tp1546
Rp1547
g1515
tp1548
a(I2510000
g1
(g5
S'q=\n\xd7\xa3p/@'
p1549
tp1550
Rp1551
g1515
tp1552
a(I2520000
g1
(g5
S'\xd7\xa3p=\nW/@'
p1553
tp1554
Rp1555
g1515
tp1556
a(I2530000
g1
(g5
S'\x8f\xc2\xf5(\\\x0f/@'
p1557
tp1558
Rp1559
g1515
tp1560
a(I2540000
g1
(g5
S')\\\x8f\xc2\xf5(/@'
p1561
tp1562
Rp1563
g1515
tp1564
a(I2550000
g1
(g5
S'\xcd\xcc\xcc\xcc\xccL/@'
p1565
tp1566
Rp1567
g1515
tp1568
a(I2560000
g1
(g5
S'\xe1z\x14\xaeGa/@'
p1569
tp1570
Rp1571
g1515
tp1572
a(I2570000
g1
(g5
S'\x00\x00\x00\x00\x00\x80/@'
p1573
tp1574
Rp1575
g1515
tp1576
a(I2580000
g1
(g5
S'\xa4p=\n\xd7#/@'
p1577
tp1578
Rp1579
g1515
tp1580
a(I2590000
g1
(g5
S'=\n\xd7\xa3p\xbd.@'
p1581
tp1582
Rp1583
g1515
tp1584
a(I2600000
g1
(g5
S'\xa4p=\n\xd7#.@'
p1585
tp1586
Rp1587
g1515
tp1588
a(I2610000
g1
(g5
S'q=\n\xd7\xa3\xf0-@'
p1589
tp1590
Rp1591
g1515
tp1592
a(I2620000
g1
(g5
S'\xcd\xcc\xcc\xcc\xccL-@'
p1593
tp1594
Rp1595
g1515
tp1596
a(I2630000
g1
(g5
S'R\xb8\x1e\x85\xeb\xd1,@'
p1597
tp1598
Rp1599
g1515
tp1600
a(I2640000
g1
(g5
S'\xc3\xf5(\\\x8fB,@'
p1601
tp1602
Rp1603
g1515
tp1604
a(I2650000
g1
(g5
S'\n\xd7\xa3p=\n,@'
p1605
tp1606
Rp1607
g1515
tp1608
a(I2660000
g1
(g5
S'\x8f\xc2\xf5(\\\x0f,@'
p1609
tp1610
Rp1611
g1515
tp1612
a(I2670000
g1
(g5
S'\xd7\xa3p=\n\xd7+@'
p1613
tp1614
Rp1615
g1515
tp1616
a(I2680000
g1
(g5
S'=\n\xd7\xa3p\xbd+@'
p1617
tp1618
Rp1619
g1515
tp1620
a(I2690000
g1
(g5
S'333333,@'
p1621
tp1622
Rp1623
g1515
tp1624
a(I2700000
g1
(g5
S'\x00\x00\x00\x00\x00\x00,@'
p1625
tp1626
Rp1627
g1515
tp1628
a(I2710000
g1
(g5
S'H\xe1z\x14\xaeG,@'
p1629
tp1630
Rp1631
g1515
tp1632
a(I2720000
g1
(g5
S'\xb8\x1e\x85\xebQ8,@'
p1633
tp1634
Rp1635
g1515
tp1636
a(I2730000
g1
(g5
S'33333\xb3,@'
p1637
tp1638
Rp1639
g1515
tp1640
a(I2740000
g1
(g5
S'q=\n\xd7\xa3\xf0,@'
p1641
tp1642
Rp1643
g1515
tp1644
a(I2750000
g1
(g5
S'\xb8\x1e\x85\xebQ8-@'
p1645
tp1646
Rp1647
g1515
tp1648
a(I2760000
g1
(g5
S'\\\x8f\xc2\xf5(\\-@'
p1649
tp1650
Rp1651
g1515
tp1652
a(I2770000
g1
(g5
S'R\xb8\x1e\x85\xebQ-@'
p1653
tp1654
Rp1655
g1515
tp1656
a(I2780000
g1
(g5
S'\x9a\x99\x99\x99\x99\x19-@'
p1657
tp1658
Rp1659
g1515
tp1660
a(I2790000
g1
(g5
S'33333\xb3,@'
p1661
tp1662
Rp1663
g1515
tp1664
a(I2800000
g1
(g5
S'\xf6(\\\x8f\xc2u,@'
p1665
tp1666
Rp1667
g1515
tp1668
a(I2810000
g1
(g5
S'H\xe1z\x14\xaeG,@'
p1669
tp1670
Rp1671
g1515
tp1672
a(I2820000
g1
(g5
S'\x9a\x99\x99\x99\x99\x19,@'
p1673
tp1674
Rp1675
g1515
tp1676
a(I2830000
g1
(g5
S'\x8f\xc2\xf5(\\\x0f,@'
p1677
tp1678
Rp1679
g1515
tp1680
a(I2840000
g1
(g5
S'333333,@'
p1681
tp1682
Rp1683
g1515
tp1684
a(I2850000
g1
(g5
S'\xb8\x1e\x85\xebQ8,@'
p1685
tp1686
Rp1687
g1515
tp1688
a(I2860000
g1
(g5
S'\xaeG\xe1z\x14.,@'
p1689
tp1690
Rp1691
g1515
tp1692
a(I2870000
g1
(g5
S'\x14\xaeG\xe1z\x14,@'
p1693
tp1694
Rp1695
g1515
tp1696
a(I2880000
g1
(g5
S'{\x14\xaeG\xe1z,@'
p1697
tp1698
Rp1699
g1515
tp1700
a(I2890000
g1
(g5
S'=\n\xd7\xa3p\xbd,@'
p1701
tp1702
Rp1703
g1515
tp1704
a(I2900000
g1
(g5
S'q=\n\xd7\xa3\xf0,@'
p1705
tp1706
Rp1707
g1515
tp1708
a(I2910000
g1
(g5
S'\xd7\xa3p=\n\xd7,@'
p1709
tp1710
Rp1711
g1515
tp1712
a(I2920000
g1
(g5
S'\xd7\xa3p=\n\xd7,@'
p1713
tp1714
Rp1715
g1515
tp1716
a(I2930000
g1
(g5
S'\x14\xaeG\xe1z\x94,@'
p1717
tp1718
Rp1719
g1515
tp1720
a(I2940000
g1
(g5
S'\xf6(\\\x8f\xc2u,@'
p1721
tp1722
Rp1723
g1515
tp1724
a(I2950000
g1
(g5
S'\x9a\x99\x99\x99\x99\x99,@'
p1725
tp1726
Rp1727
g1515
tp1728
a(I2960000
g1
(g5
S'\xcd\xcc\xcc\xcc\xcc\xcc,@'
p1729
tp1730
Rp1731
g1515
tp1732
a(I2970000
g1
(g5
S'\x00\x00\x00\x00\x00\x00-@'
p1733
tp1734
Rp1735
g1515
tp1736
a(I2980000
g1
(g5
S'\xaeG\xe1z\x14.-@'
p1737
tp1738
Rp1739
g1515
tp1740
a(I2990000
g1
(g5
S'\xaeG\xe1z\x14.-@'
p1741
tp1742
Rp1743
g1515
tp1744
a(I3000000
g1
(g5
S'H\xe1z\x14\xaeG-@'
p1745
tp1746
Rp1747
g1515
tp1748
a(I3010000
g1
(g5
S')\\\x8f\xc2\xf5(-@'
p1749
tp1750
Rp1751
g1515
tp1752
a(I3020000
g1
(g5
S'\\\x8f\xc2\xf5(\xdc,@'
p1753
tp1754
Rp1755
g1515
tp1756
a(I3030000
g1
(g5
S'\xf6(\\\x8f\xc2\xf5,@'
p1757
tp1758
Rp1759
g1515
tp1760
a(I3040000
g1
(g5
S'\x8f\xc2\xf5(\\\x0f-@'
p1761
tp1762
Rp1763
g1515
tp1764
a(I3050000
g1
(g5
S'\x9a\x99\x99\x99\x99\x19-@'
p1765
tp1766
Rp1767
g1515
tp1768
a(I3060000
g1
(g5
S'\xd7\xa3p=\nW-@'
p1769
tp1770
Rp1771
g1515
tp1772
a(I3070000
g1
(g5
S'\x8f\xc2\xf5(\\\x8f-@'
p1773
tp1774
Rp1775
g1515
tp1776
a(I3080000
g1
(g5
S'\x14\xaeG\xe1z\x14.@'
p1777
tp1778
Rp1779
g1515
tp1780
a(I3090000
g1
(g5
S'H\xe1z\x14\xae\xc7.@'
p1781
tp1782
Rp1783
g1515
tp1784
a(I3100000
g1
(g5
S'\xaeG\xe1z\x14./@'
p1785
tp1786
Rp1787
g1515
tp1788
a(I3110000
g1
(g5
S'ffffff/@'
p1789
tp1790
Rp1791
g1515
tp1792
a(I3120000
g1
(g5
S'33333\xb3/@'
p1793
tp1794
Rp1795
g1515
tp1796
a(I3130000
g1
(g5
S'\x85\xebQ\xb8\x1e\x050@'
p1797
tp1798
Rp1799
g1515
tp1800
a(I3140000
g1
(g5
S'\x00\x00\x00\x00\x00@0@'
p1801
tp1802
Rp1803
g1515
tp1804
a(I3150000
g1
(g5
S'\xecQ\xb8\x1e\x85k0@'
p1805
tp1806
Rp1807
g1515
tp1808
a(I3160000
g1
(g5
S'R\xb8\x1e\x85\xeb\x910@'
p1809
tp1810
Rp1811
g1515
tp1812
a(I3170000
g1
(g5
S'\xecQ\xb8\x1e\x85\xab0@'
p1813
tp1814
Rp1815
g1515
tp1816
a(I3180000
g1
(g5
S'\x00\x00\x00\x00\x00\xc00@'
p1817
tp1818
Rp1819
g1515
tp1820
a(I3190000
g1
(g5
S')\\\x8f\xc2\xf5\xe80@'
p1821
tp1822
Rp1823
g1515
tp1824
a(I3200000
g1
(g5
S'\xd7\xa3p=\n\x171@'
p1825
tp1826
Rp1827
g1515
tp1828
a(I3210000
g1
(g5
S'\x85\xebQ\xb8\x1eE1@'
p1829
tp1830
Rp1831
g1
(g5
S'H\xe1z\x14\xaeG1@'
p1832
tp1833
Rp1834
tp1835
a(I3220000
g1
(g5
S'\xd7\xa3p=\nW1@'
p1836
tp1837
Rp1838
g1
(g5
S'\xd7\xa3p=\nW1@'
p1839
tp1840
Rp1841
tp1842
a(I3230000
g1
(g5
S'\\\x8f\xc2\xf5(\x9c1@'
p1843
tp1844
Rp1845
g1
(g5
S'\\\x8f\xc2\xf5(\x9c1@'
p1846
tp1847
Rp1848
tp1849
a(I3240000
g1
(g5
S'q=\n\xd7\xa3\xf01@'
p1850
tp1851
Rp1852
g1
(g5
S'q=\n\xd7\xa3\xf01@'
p1853
tp1854
Rp1855
tp1856
a(I3250000
g1
(g5
S'\xd7\xa3p=\n\xd71@'
p1857
tp1858
Rp1859
g1
(g5
S'{\x14\xaeG\xe1\xfa1@'
p1860
tp1861
Rp1862
tp1863
a(I3260000
g1
(g5
S'\x9a\x99\x99\x99\x99\xd91@'
p1864
tp1865
Rp1866
g1862
tp1867
a(I3270000
g1
(g5
S'\xd7\xa3p=\n\xd71@'
p1868
tp1869
Rp1870
g1862
tp1871
a(I3280000
g1
(g5
S'=\n\xd7\xa3p\xfd1@'
p1872
tp1873
Rp1874
g1
(g5
S'=\n\xd7\xa3p\xfd1@'
p1875
tp1876
Rp1877
tp1878
a(I3290000
g1
(g5
S'\xcd\xcc\xcc\xcc\xcc\x0c2@'
p1879
tp1880
Rp1881
g1
(g5
S'\xcd\xcc\xcc\xcc\xcc\x0c2@'
p1882
tp1883
Rp1884
tp1885
a(I3300000
g1
(g5
S'{\x14\xaeG\xe1:2@'
p1886
tp1887
Rp1888
g1
(g5
S'{\x14\xaeG\xe1:2@'
p1889
tp1890
Rp1891
tp1892
a(I3310000
g1
(g5
S'\xcd\xcc\xcc\xcc\xccL2@'
p1893
tp1894
Rp1895
g1
(g5
S'\x14\xaeG\xe1zT2@'
p1896
tp1897
Rp1898
tp1899
a(I3320000
g1
(g5
S'\xaeG\xe1z\x14n2@'
p1900
tp1901
Rp1902
g1
(g5
S'\xaeG\xe1z\x14n2@'
p1903
tp1904
Rp1905
tp1906
a(I3330000
g1
(g5
S'=\n\xd7\xa3p}2@'
p1907
tp1908
Rp1909
g1
(g5
S'=\n\xd7\xa3p}2@'
p1910
tp1911
Rp1912
tp1913
a(I3340000
g1
(g5
S'{\x14\xaeG\xe1z2@'
p1914
tp1915
Rp1916
g1
(g5
S'\x00\x00\x00\x00\x00\x802@'
p1917
tp1918
Rp1919
tp1920
a(I3350000
g1
(g5
S'\\\x8f\xc2\xf5(\x9c2@'
p1921
tp1922
Rp1923
g1
(g5
S'\\\x8f\xc2\xf5(\x9c2@'
p1924
tp1925
Rp1926
tp1927
a(I3360000
g1
(g5
S'\xd7\xa3p=\n\x972@'
p1928
tp1929
Rp1930
g1
(g5
S'\xa4p=\n\xd7\xa32@'
p1931
tp1932
Rp1933
tp1934
a(I3370000
g1
(g5
S'\xc3\xf5(\\\x8f\x822@'
p1935
tp1936
Rp1937
g1933
tp1938
a(I3380000
g1
(g5
S'\xf6(\\\x8f\xc2u2@'
p1939
tp1940
Rp1941
g1933
tp1942
a(I3390000
g1
(g5
S'{\x14\xaeG\xe1z2@'
p1943
tp1944
Rp1945
g1933
tp1946
a(I3400000
g1
(g5
S'\x8f\xc2\xf5(\\\x8f2@'
p1947
tp1948
Rp1949
g1933
tp1950
a(I3410000
g1
(g5
S'\x14\xaeG\xe1z\x942@'
p1951
tp1952
Rp1953
g1933
tp1954
a(I3420000
g1
(g5
S')\\\x8f\xc2\xf5\xa82@'
p1955
tp1956
Rp1957
g1
(g5
S'\xecQ\xb8\x1e\x85\xab2@'
p1958
tp1959
Rp1960
tp1961
a(I3430000
g1
(g5
S'\n\xd7\xa3p=\xca2@'
p1962
tp1963
Rp1964
g1
(g5
S'\n\xd7\xa3p=\xca2@'
p1965
tp1966
Rp1967
tp1968
a(I3440000
g1
(g5
S'\xe1z\x14\xaeG!3@'
p1969
tp1970
Rp1971
g1
(g5
S'\xe1z\x14\xaeG!3@'
p1972
tp1973
Rp1974
tp1975
a(I3450000
g1
(g5
S'\x00\x00\x00\x00\x00@3@'
p1976
tp1977
Rp1978
g1
(g5
S'\xc3\xf5(\\\x8fB3@'
p1979
tp1980
Rp1981
tp1982
a(I3460000
g1
(g5
S'\xecQ\xb8\x1e\x85+3@'
p1983
tp1984
Rp1985
g1
(g5
S'\xd7\xa3p=\nW3@'
p1986
tp1987
Rp1988
tp1989
a(I3470000
g1
(g5
S')\\\x8f\xc2\xf5(3@'
p1990
tp1991
Rp1992
g1988
tp1993
a(I3480000
g1
(g5
S'\xaeG\xe1z\x14.3@'
p1994
tp1995
Rp1996
g1988
tp1997
a(I3490000
g1
(g5
S'\xecQ\xb8\x1e\x85+3@'
p1998
tp1999
Rp2000
g1988
tp2001
a(I3500000
g1
(g5
S')\\\x8f\xc2\xf5(3@'
p2002
tp2003
Rp2004
g1988
tp2005
a(I3510000
g1
(g5
S'\xaeG\xe1z\x14.3@'
p2006
tp2007
Rp2008
g1988
tp2009
a(I3520000
g1
(g5
S')\\\x8f\xc2\xf5(3@'
p2010
tp2011
Rp2012
g1988
tp2013
a(I3530000
g1
(g5
S'\xa4p=\n\xd7#3@'
p2014
tp2015
Rp2016
g1988
tp2017
a(I3540000
g1
(g5
S')\\\x8f\xc2\xf5(3@'
p2018
tp2019
Rp2020
g1988
tp2021
a(I3550000
g1
(g5
S'{\x14\xaeG\xe1:3@'
p2022
tp2023
Rp2024
g1988
tp2025
a(I3560000
g1
(g5
S'\xcd\xcc\xcc\xcc\xccL3@'
p2026
tp2027
Rp2028
g1988
tp2029
a(I3570000
g1
(g5
S'\xc3\xf5(\\\x8fB3@'
p2030
tp2031
Rp2032
g1988
tp2033
a(I3580000
g1
(g5
S'\xf6(\\\x8f\xc253@'
p2034
tp2035
Rp2036
g1988
tp2037
a(I3590000
g1
(g5
S'\xb8\x1e\x85\xebQ83@'
p2038
tp2039
Rp2040
g1988
tp2041
a(I3600000
g1
(g5
S'\n\xd7\xa3p=J3@'
p2042
tp2043
Rp2044
g1988
tp2045
a(I3610000
g1
(g5
S'R\xb8\x1e\x85\xebQ3@'
p2046
tp2047
Rp2048
g1988
tp2049
a(I3620000
g1
(g5
S'\x85\xebQ\xb8\x1eE3@'
p2050
tp2051
Rp2052
g1988
tp2053
a(I3630000
g1
(g5
S'\xcd\xcc\xcc\xcc\xccL3@'
p2054
tp2055
Rp2056
g1988
tp2057
a(I3640000
g1
(g5
S'\x9a\x99\x99\x99\x99Y3@'
p2058
tp2059
Rp2060
g1
(g5
S'\x9a\x99\x99\x99\x99Y3@'
p2061
tp2062
Rp2063
tp2064
a(I3650000
g1
(g5
S'{\x14\xaeG\xe1z3@'
p2065
tp2066
Rp2067
g1
(g5
S'\xc3\xf5(\\\x8f\x823@'
p2068
tp2069
Rp2070
tp2071
a(I3660000
g1
(g5
S'=\n\xd7\xa3p}3@'
p2072
tp2073
Rp2074
g2070
tp2075
a(I3670000
g1
(g5
S'{\x14\xaeG\xe1z3@'
p2076
tp2077
Rp2078
g2070
tp2079
a(I3680000
g1
(g5
S'H\xe1z\x14\xae\x873@'
p2080
tp2081
Rp2082
g1
(g5
S'H\xe1z\x14\xae\x873@'
p2083
tp2084
Rp2085
tp2086
a(I3690000
g1
(g5
S'\xcd\xcc\xcc\xcc\xcc\x8c3@'
p2087
tp2088
Rp2089
g1
(g5
S'\xcd\xcc\xcc\xcc\xcc\x8c3@'
p2090
tp2091
Rp2092
tp2093
a(I3700000
g1
(g5
S'\x85\xebQ\xb8\x1e\x853@'
p2094
tp2095
Rp2096
g2092
tp2097
a(I3710000
g1
(g5
S'R\xb8\x1e\x85\xeb\x913@'
p2098
tp2099
Rp2100
g1
(g5
S'R\xb8\x1e\x85\xeb\x913@'
p2101
tp2102
Rp2103
tp2104
a(I3720000
g1
(g5
S'\x14\xaeG\xe1z\x943@'
p2105
tp2106
Rp2107
g1
(g5
S'\xa4p=\n\xd7\xa33@'
p2108
tp2109
Rp2110
tp2111
a(I3730000
g1
(g5
S'\x14\xaeG\xe1z\x943@'
p2112
tp2113
Rp2114
g2110
tp2115
a(I3740000
g1
(g5
S'\xe1z\x14\xaeG\xa13@'
p2116
tp2117
Rp2118
g2110
tp2119
a(I3750000
g1
(g5
S')\\\x8f\xc2\xf5\xa83@'
p2120
tp2121
Rp2122
g1
(g5
S'\xecQ\xb8\x1e\x85\xab3@'
p2123
tp2124
Rp2125
tp2126
a(I3760000
g1
(g5
S'\x9a\x99\x99\x99\x99\x993@'
p2127
tp2128
Rp2129
g2125
tp2130
a(I3770000
g1
(g5
S'\x14\xaeG\xe1z\x943@'
p2131
tp2132
Rp2133
g2125
tp2134
a(I3780000
g1
(g5
S'\x14\xaeG\xe1z\x943@'
p2135
tp2136
Rp2137
g2125
tp2138
a(I3790000
g1
(g5
S'\xd7\xa3p=\n\x973@'
p2139
tp2140
Rp2141
g2125
tp2142
a(I3800000
g1
(g5
S'\xa4p=\n\xd7\xa33@'
p2143
tp2144
Rp2145
g2125
tp2146
a(I3810000
g1
(g5
S'\x1f\x85\xebQ\xb8\x9e3@'
p2147
tp2148
Rp2149
g2125
tp2150
a(I3820000
g1
(g5
S'R\xb8\x1e\x85\xeb\x913@'
p2151
tp2152
Rp2153
g2125
tp2154
a(I3830000
g1
(g5
S'\xcd\xcc\xcc\xcc\xcc\x8c3@'
p2155
tp2156
Rp2157
g2125
tp2158
a(I3840000
g1
(g5
S'\n\xd7\xa3p=\x8a3@'
p2159
tp2160
Rp2161
g2125
tp2162
a(I3850000
g1
(g5
S'\xb8\x1e\x85\xebQx3@'
p2163
tp2164
Rp2165
g2125
tp2166
a(I3860000
g1
(g5
S'\xb8\x1e\x85\xebQx3@'
p2167
tp2168
Rp2169
g2125
tp2170
a(I3870000
g1
(g5
S'\x00\x00\x00\x00\x00\x803@'
p2171
tp2172
Rp2173
g2125
tp2174
a(I3880000
g1
(g5
S'\xb8\x1e\x85\xebQx3@'
p2175
tp2176
Rp2177
g2125
tp2178
a(I3890000
g1
(g5
S'\n\xd7\xa3p=\x8a3@'
p2179
tp2180
Rp2181
g2125
tp2182
a(I3900000
g1
(g5
S'=\n\xd7\xa3p}3@'
p2183
tp2184
Rp2185
g2125
tp2186
a(I3910000
g1
(g5
S'\xb8\x1e\x85\xebQx3@'
p2187
tp2188
Rp2189
g2125
tp2190
a(I3920000
g1
(g5
S'\xd7\xa3p=\n\x973@'
p2191
tp2192
Rp2193
g2125
tp2194
a(I3930000
g1
(g5
S'\xa4p=\n\xd7\xa33@'
p2195
tp2196
Rp2197
g2125
tp2198
a(I3940000
g1
(g5
S'\xb8\x1e\x85\xebQ\xb83@'
p2199
tp2200
Rp2201
g1
(g5
S'\xb8\x1e\x85\xebQ\xb83@'
p2202
tp2203
Rp2204
tp2205
a(I3950000
g1
(g5
S'=\n\xd7\xa3p\xbd3@'
p2206
tp2207
Rp2208
g1
(g5
S'=\n\xd7\xa3p\xbd3@'
p2209
tp2210
Rp2211
tp2212
a(I3960000
g1
(g5
S'=\n\xd7\xa3p\xbd3@'
p2213
tp2214
Rp2215
g1
(g5
S'\xc3\xf5(\\\x8f\xc23@'
p2216
tp2217
Rp2218
tp2219
a(I3970000
g1
(g5
S'\x00\x00\x00\x00\x00\xc03@'
p2220
tp2221
Rp2222
g2218
tp2223
a(I3980000
g1
(g5
S'{\x14\xaeG\xe1\xba3@'
p2224
tp2225
Rp2226
g2218
tp2227
a(I3990000
g1
(g5
S'q=\n\xd7\xa3\xb03@'
p2228
tp2229
Rp2230
g2218
tp2231
a(I4000000
g1
(g5
S'\xc3\xf5(\\\x8f\xc23@'
p2232
tp2233
Rp2234
g2218
tp2235
a(I4010000
g1
(g5
S'\x00\x00\x00\x00\x00\xc03@'
p2236
tp2237
Rp2238
g1
(g5
S'\x85\xebQ\xb8\x1e\xc53@'
p2239
tp2240
Rp2241
tp2242
a(I4020000
g1
(g5
S'\x00\x00\x00\x00\x00\xc03@'
p2243
tp2244
Rp2245
g2241
tp2246
a(I4030000
g1
(g5
S'\x1f\x85\xebQ\xb8\xde3@'
p2247
tp2248
Rp2249
g1
(g5
S'\x1f\x85\xebQ\xb8\xde3@'
p2250
tp2251
Rp2252
tp2253
a(I4040000
g1
(g5
S'\xa4p=\n\xd7\xe33@'
p2254
tp2255
Rp2256
g1
(g5
S'\xa4p=\n\xd7\xe33@'
p2257
tp2258
Rp2259
tp2260
a(I4050000
g1
(g5
S'\\\x8f\xc2\xf5(\xdc3@'
p2261
tp2262
Rp2263
g1
(g5
S'fffff\xe63@'
p2264
tp2265
Rp2266
tp2267
a(I4060000
g1
(g5
S'\xaeG\xe1z\x14\xee3@'
p2268
tp2269
Rp2270
g1
(g5
S'\xaeG\xe1z\x14\xee3@'
p2271
tp2272
Rp2273
tp2274
a(I4070000
g1
(g5
S'\xa4p=\n\xd7\xe33@'
p2275
tp2276
Rp2277
g1
(g5
S'q=\n\xd7\xa3\xf03@'
p2278
tp2279
Rp2280
tp2281
a(I4080000
g1
(g5
S'=\n\xd7\xa3p\xfd3@'
p2282
tp2283
Rp2284
g1
(g5
S'=\n\xd7\xa3p\xfd3@'
p2285
tp2286
Rp2287
tp2288
a(I4090000
g1
(g5
S'H\xe1z\x14\xae\x074@'
p2289
tp2290
Rp2291
g1
(g5
S'H\xe1z\x14\xae\x074@'
p2292
tp2293
Rp2294
tp2295
a(I4100000
g1
(g5
S'=\n\xd7\xa3p\xfd3@'
p2296
tp2297
Rp2298
g2294
tp2299
a(I4110000
g1
(g5
S'=\n\xd7\xa3p\xfd3@'
p2300
tp2301
Rp2302
g2294
tp2303
a(I4120000
g1
(g5
S'=\n\xd7\xa3p\xfd3@'
p2304
tp2305
Rp2306
g2294
tp2307
a(I4130000
g1
(g5
S'\n\xd7\xa3p=\n4@'
p2308
tp2309
Rp2310
g1
(g5
S'\n\xd7\xa3p=\n4@'
p2311
tp2312
Rp2313
tp2314
a(I4140000
g1
(g5
S'\n\xd7\xa3p=\n4@'
p2315
tp2316
Rp2317
g1
(g5
S'\xcd\xcc\xcc\xcc\xcc\x0c4@'
p2318
tp2319
Rp2320
tp2321
a(I4150000
g1
(g5
S'H\xe1z\x14\xae\x074@'
p2322
tp2323
Rp2324
g2320
tp2325
a(I4160000
g1
(g5
S'\x14\xaeG\xe1z\x144@'
p2326
tp2327
Rp2328
g1
(g5
S'\x14\xaeG\xe1z\x144@'
p2329
tp2330
Rp2331
tp2332
a(I4170000
g1
(g5
S'fffff&4@'
p2333
tp2334
Rp2335
g1
(g5
S'fffff&4@'
p2336
tp2337
Rp2338
tp2339
a(I4180000
g1
(g5
S'\xecQ\xb8\x1e\x85+4@'
p2340
tp2341
Rp2342
g1
(g5
S'\xecQ\xb8\x1e\x85+4@'
p2343
tp2344
Rp2345
tp2346
a(I4190000
g1
(g5
S'\xecQ\xb8\x1e\x85+4@'
p2347
tp2348
Rp2349
g1
(g5
S'\xaeG\xe1z\x14.4@'
p2350
tp2351
Rp2352
tp2353
a(I4200000
g1
(g5
S'\xecQ\xb8\x1e\x85+4@'
p2354
tp2355
Rp2356
g1
(g5
S'\xf6(\\\x8f\xc254@'
p2357
tp2358
Rp2359
tp2360
a(I4210000
g1
(g5
S'\x1f\x85\xebQ\xb8\x1e4@'
p2361
tp2362
Rp2363
g2359
tp2364
a(I4220000
g1
(g5
S'\x9a\x99\x99\x99\x99\x194@'
p2365
tp2366
Rp2367
g2359
tp2368
a(I4230000
g1
(g5
S'\x8f\xc2\xf5(\\\x0f4@'
p2369
tp2370
Rp2371
g2359
tp2372
a(I4240000
g1
(g5
S'H\xe1z\x14\xae\x074@'
p2373
tp2374
Rp2375
g2359
tp2376
a(I4250000
g1
(g5
S'\x8f\xc2\xf5(\\\x0f4@'
p2377
tp2378
Rp2379
g2359
tp2380
a(I4260000
g1
(g5
S'\x8f\xc2\xf5(\\\x0f4@'
p2381
tp2382
Rp2383
g2359
tp2384
a(I4270000
g1
(g5
S'\x8f\xc2\xf5(\\\x0f4@'
p2385
tp2386
Rp2387
g2359
tp2388
a(I4280000
g1
(g5
S'\x85\xebQ\xb8\x1e\x054@'
p2389
tp2390
Rp2391
g2359
tp2392
a(I4290000
g1
(g5
S'=\n\xd7\xa3p\xfd3@'
p2393
tp2394
Rp2395
g2359
tp2396
a(I4300000
g1
(g5
S'\xc3\xf5(\\\x8f\x024@'
p2397
tp2398
Rp2399
g2359
tp2400
a(I4310000
g1
(g5
S'\xcd\xcc\xcc\xcc\xcc\x0c4@'
p2401
tp2402
Rp2403
g2359
tp2404
a(I4320000
g1
(g5
S'\x14\xaeG\xe1z\x144@'
p2405
tp2406
Rp2407
g2359
tp2408
a(I4330000
g1
(g5
S'\x14\xaeG\xe1z\x144@'
p2409
tp2410
Rp2411
g2359
tp2412
a(I4340000
g1
(g5
S'\xcd\xcc\xcc\xcc\xcc\x0c4@'
p2413
tp2414
Rp2415
g2359
tp2416
a(I4350000
g1
(g5
S'{\x14\xaeG\xe1\xfa3@'
p2417
tp2418
Rp2419
g2359
tp2420
a(I4360000
g1
(g5
S'=\n\xd7\xa3p\xfd3@'
p2421
tp2422
Rp2423
g2359
tp2424
a(I4370000
g1
(g5
S'\xf6(\\\x8f\xc2\xf53@'
p2425
tp2426
Rp2427
g2359
tp2428
a(I4380000
g1
(g5
S'=\n\xd7\xa3p\xfd3@'
p2429
tp2430
Rp2431
g2359
tp2432
a(I4390000
g1
(g5
S'\n\xd7\xa3p=\n4@'
p2433
tp2434
Rp2435
g2359
tp2436
a(I4400000
g1
(g5
S'\x8f\xc2\xf5(\\\x0f4@'
p2437
tp2438
Rp2439
g2359
tp2440
a(I4410000
g1
(g5
S'\xd7\xa3p=\n\x174@'
p2441
tp2442
Rp2443
g2359
tp2444
a(I4420000
g1
(g5
S'\x9a\x99\x99\x99\x99\x194@'
p2445
tp2446
Rp2447
g2359
tp2448
a(I4430000
g1
(g5
S'\x1f\x85\xebQ\xb8\x1e4@'
p2449
tp2450
Rp2451
g2359
tp2452
a(I4440000
g1
(g5
S'\x1f\x85\xebQ\xb8\x1e4@'
p2453
tp2454
Rp2455
g2359
tp2456
a(I4450000
g1
(g5
S'\xecQ\xb8\x1e\x85+4@'
p2457
tp2458
Rp2459
g2359
tp2460
a(I4460000
g1
(g5
S'fffff&4@'
p2461
tp2462
Rp2463
g2359
tp2464
a(I4470000
g1
(g5
S'\xaeG\xe1z\x14.4@'
p2465
tp2466
Rp2467
g2359
tp2468
a(I4480000
g1
(g5
S'\xa4p=\n\xd7#4@'
p2469
tp2470
Rp2471
g2359
tp2472
a(I4490000
g1
(g5
S'\xd7\xa3p=\n\x174@'
p2473
tp2474
Rp2475
g2359
tp2476
a(I4500000
g1
(g5
S'\x9a\x99\x99\x99\x99\x194@'
p2477
tp2478
Rp2479
g2359
tp2480
a(I4510000
g1
(g5
S'fffff&4@'
p2481
tp2482
Rp2483
g2359
tp2484
a(I4520000
g1
(g5
S'\xf6(\\\x8f\xc254@'
p2485
tp2486
Rp2487
g2359
tp2488
a(I4530000
g1
(g5
S'\xecQ\xb8\x1e\x85+4@'
p2489
tp2490
Rp2491
g2359
tp2492
a(I4540000
g1
(g5
S'{\x14\xaeG\xe1:4@'
p2493
tp2494
Rp2495
g1
(g5
S'\x85\xebQ\xb8\x1eE4@'
p2496
tp2497
Rp2498
tp2499
a(I4550000
g1
(g5
S'3333334@'
p2500
tp2501
Rp2502
g2498
tp2503
a(I4560000
g1
(g5
S'3333334@'
p2504
tp2505
Rp2506
g2498
tp2507
a(I4570000
g1
(g5
S'\xc3\xf5(\\\x8fB4@'
p2508
tp2509
Rp2510
g2498
tp2511
a(I4580000
g1
(g5
S'=\n\xd7\xa3p=4@'
p2512
tp2513
Rp2514
g2498
tp2515
a(I4590000
g1
(g5
S'\x85\xebQ\xb8\x1eE4@'
p2516
tp2517
Rp2518
g1
(g5
S'H\xe1z\x14\xaeG4@'
p2519
tp2520
Rp2521
tp2522
a(I4600000
g1
(g5
S'\xc3\xf5(\\\x8fB4@'
p2523
tp2524
Rp2525
g1
(g5
S'\n\xd7\xa3p=J4@'
p2526
tp2527
Rp2528
tp2529
a(I4610000
g1
(g5
S'\xb8\x1e\x85\xebQ84@'
p2530
tp2531
Rp2532
g2528
tp2533
a(I4620000
g1
(g5
S'\xb8\x1e\x85\xebQ84@'
p2534
tp2535
Rp2536
g2528
tp2537
a(I4630000
g1
(g5
S'\x85\xebQ\xb8\x1eE4@'
p2538
tp2539
Rp2540
g2528
tp2541
a(I4640000
g1
(g5
S'\n\xd7\xa3p=J4@'
p2542
tp2543
Rp2544
g2528
tp2545
a(I4650000
g1
(g5
S'H\xe1z\x14\xaeG4@'
p2546
tp2547
Rp2548
g2528
tp2549
a(I4660000
g1
(g5
S'\xcd\xcc\xcc\xcc\xccL4@'
p2550
tp2551
Rp2552
g1
(g5
S'\x8f\xc2\xf5(\\O4@'
p2553
tp2554
Rp2555
tp2556
a(I4670000
g1
(g5
S'\\\x8f\xc2\xf5(\\4@'
p2557
tp2558
Rp2559
g1
(g5
S'\x1f\x85\xebQ\xb8^4@'
p2560
tp2561
Rp2562
tp2563
a(I4680000
g1
(g5
S'\xe1z\x14\xaeGa4@'
p2564
tp2565
Rp2566
g1
(g5
S'\xe1z\x14\xaeGa4@'
p2567
tp2568
Rp2569
tp2570
a(I4690000
g1
(g5
S'\x14\xaeG\xe1zT4@'
p2571
tp2572
Rp2573
g2569
tp2574
a(I4700000
g1
(g5
S'\xe1z\x14\xaeGa4@'
p2575
tp2576
Rp2577
g2569
tp2578
a(I4710000
g1
(g5
S')\\\x8f\xc2\xf5h4@'
p2579
tp2580
Rp2581
g1
(g5
S'\xecQ\xb8\x1e\x85k4@'
p2582
tp2583
Rp2584
tp2585
a(I4720000
g1
(g5
S'33333s4@'
p2586
tp2587
Rp2588
g1
(g5
S'33333s4@'
p2589
tp2590
Rp2591
tp2592
a(I4730000
g1
(g5
S'{\x14\xaeG\xe1z4@'
p2593
tp2594
Rp2595
g1
(g5
S'{\x14\xaeG\xe1z4@'
p2596
tp2597
Rp2598
tp2599
a(I4740000
g1
(g5
S'\xb8\x1e\x85\xebQx4@'
p2600
tp2601
Rp2602
g2598
tp2603
a(I4750000
g1
(g5
S'33333s4@'
p2604
tp2605
Rp2606
g2598
tp2607
a(I4760000
g1
(g5
S'{\x14\xaeG\xe1z4@'
p2608
tp2609
Rp2610
g2598
tp2611
a(I4770000
g1
(g5
S'{\x14\xaeG\xe1z4@'
p2612
tp2613
Rp2614
g1
(g5
S'=\n\xd7\xa3p}4@'
p2615
tp2616
Rp2617
tp2618
a(I4780000
g1
(g5
S'H\xe1z\x14\xae\x874@'
p2619
tp2620
Rp2621
g1
(g5
S'H\xe1z\x14\xae\x874@'
p2622
tp2623
Rp2624
tp2625
a(I4790000
g1
(g5
S'H\xe1z\x14\xae\x874@'
p2626
tp2627
Rp2628
g1
(g5
S'\n\xd7\xa3p=\x8a4@'
p2629
tp2630
Rp2631
tp2632
a(I4800000
g1
(g5
S'\x8f\xc2\xf5(\\\x8f4@'
p2633
tp2634
Rp2635
g1
(g5
S'\x8f\xc2\xf5(\\\x8f4@'
p2636
tp2637
Rp2638
tp2639
a(I4810000
g1
(g5
S'\xd7\xa3p=\n\x974@'
p2640
tp2641
Rp2642
g1
(g5
S'\x9a\x99\x99\x99\x99\x994@'
p2643
tp2644
Rp2645
tp2646
a(I4820000
g1
(g5
S'\x1f\x85\xebQ\xb8\x9e4@'
p2647
tp2648
Rp2649
g1
(g5
S'\xe1z\x14\xaeG\xa14@'
p2650
tp2651
Rp2652
tp2653
a(I4830000
g1
(g5
S'\xa4p=\n\xd7\xa34@'
p2654
tp2655
Rp2656
g1
(g5
S'\xa4p=\n\xd7\xa34@'
p2657
tp2658
Rp2659
tp2660
a(I4840000
g1
(g5
S'\x1f\x85\xebQ\xb8\x9e4@'
p2661
tp2662
Rp2663
g2659
tp2664
a(I4850000
g1
(g5
S'\x1f\x85\xebQ\xb8\x9e4@'
p2665
tp2666
Rp2667
g2659
tp2668
a(I4860000
g1
(g5
S'\xecQ\xb8\x1e\x85\xab4@'
p2669
tp2670
Rp2671
g1
(g5
S'\xecQ\xb8\x1e\x85\xab4@'
p2672
tp2673
Rp2674
tp2675
a(I4870000
g1
(g5
S'\xa4p=\n\xd7\xa34@'
p2676
tp2677
Rp2678
g2674
tp2679
a(I4880000
g1
(g5
S'\xa4p=\n\xd7\xa34@'
p2680
tp2681
Rp2682
g2674
tp2683
a(I4890000
g1
(g5
S')\\\x8f\xc2\xf5\xa84@'
p2684
tp2685
Rp2686
g2674
tp2687
a(I4900000
g1
(g5
S'fffff\xa64@'
p2688
tp2689
Rp2690
g1
(g5
S'\xaeG\xe1z\x14\xae4@'
p2691
tp2692
Rp2693
tp2694
a(I4910000
g1
(g5
S'\xa4p=\n\xd7\xa34@'
p2695
tp2696
Rp2697
g2693
tp2698
a(I4920000
g1
(g5
S'\xa4p=\n\xd7\xa34@'
p2699
tp2700
Rp2701
g2693
tp2702
a(I4930000
g1
(g5
S'\\\x8f\xc2\xf5(\x9c4@'
p2703
tp2704
Rp2705
g2693
tp2706
a(I4940000
g1
(g5
S'R\xb8\x1e\x85\xeb\x914@'
p2707
tp2708
Rp2709
g2693
tp2710
a(I4950000
g1
(g5
S'R\xb8\x1e\x85\xeb\x914@'
p2711
tp2712
Rp2713
g2693
tp2714
a(I4960000
g1
(g5
S'\x9a\x99\x99\x99\x99\x994@'
p2715
tp2716
Rp2717
g2693
tp2718
a(I4970000
g1
(g5
S'\x1f\x85\xebQ\xb8\x9e4@'
p2719
tp2720
Rp2721
g2693
tp2722
a(I4980000
g1
(g5
S'\x9a\x99\x99\x99\x99\x994@'
p2723
tp2724
Rp2725
g2693
tp2726
a(I4990000
g1
(g5
S'\x9a\x99\x99\x99\x99\x994@'
p2727
tp2728
Rp2729
g2693
tp2730
a(I5000000
g1
(g5
S'\xe1z\x14\xaeG\xa14@'
p2731
tp2732
Rp2733
g2693
tp2734
a(I5010000
g1
(g5
S'\xecQ\xb8\x1e\x85\xab4@'
p2735
tp2736
Rp2737
g2693
tp2738
a(I5020000
g1
(g5
S'fffff\xa64@'
p2739
tp2740
Rp2741
g2693
tp2742
a(I5030000
g1
(g5
S'\x1f\x85\xebQ\xb8\x9e4@'
p2743
tp2744
Rp2745
g2693
tp2746
a(I5040000
g1
(g5
S'fffff\xa64@'
p2747
tp2748
Rp2749
g2693
tp2750
a(I5050000
g1
(g5
S'\xe1z\x14\xaeG\xa14@'
p2751
tp2752
Rp2753
g2693
tp2754
a(I5060000
g1
(g5
S'\xe1z\x14\xaeG\xa14@'
p2755
tp2756
Rp2757
g2693
tp2758
a(I5070000
g1
(g5
S'fffff\xa64@'
p2759
tp2760
Rp2761
g2693
tp2762
a(I5080000
g1
(g5
S'\xa4p=\n\xd7\xa34@'
p2763
tp2764
Rp2765
g2693
tp2766
a(I5090000
g1
(g5
S'\xaeG\xe1z\x14\xae4@'
p2767
tp2768
Rp2769
g2693
tp2770
a(I5100000
g1
(g5
S'q=\n\xd7\xa3\xb04@'
p2771
tp2772
Rp2773
g1
(g5
S'q=\n\xd7\xa3\xb04@'
p2774
tp2775
Rp2776
tp2777
a(I5110000
g1
(g5
S'\xb8\x1e\x85\xebQ\xb84@'
p2778
tp2779
Rp2780
g1
(g5
S'\xb8\x1e\x85\xebQ\xb84@'
p2781
tp2782
Rp2783
tp2784
a(I5120000
g1
(g5
S'\xb8\x1e\x85\xebQ\xb84@'
p2785
tp2786
Rp2787
g1
(g5
S'{\x14\xaeG\xe1\xba4@'
p2788
tp2789
Rp2790
tp2791
a(I5130000
g1
(g5
S'\xb8\x1e\x85\xebQ\xb84@'
p2792
tp2793
Rp2794
g2790
tp2795
a(I5140000
g1
(g5
S'33333\xb34@'
p2796
tp2797
Rp2798
g2790
tp2799
a(I5150000
g1
(g5
S'\xb8\x1e\x85\xebQ\xb84@'
p2800
tp2801
Rp2802
g2790
tp2803
a(I5160000
g1
(g5
S'{\x14\xaeG\xe1\xba4@'
p2804
tp2805
Rp2806
g2790
tp2807
a(I5170000
g1
(g5
S'\xb8\x1e\x85\xebQ\xb84@'
p2808
tp2809
Rp2810
g2790
tp2811
a(I5180000
g1
(g5
S'q=\n\xd7\xa3\xb04@'
p2812
tp2813
Rp2814
g2790
tp2815
a(I5190000
g1
(g5
S'33333\xb34@'
p2816
tp2817
Rp2818
g2790
tp2819
a(I5200000
g1
(g5
S'\xf6(\\\x8f\xc2\xb54@'
p2820
tp2821
Rp2822
g2790
tp2823
a(I5210000
g1
(g5
S'33333\xb34@'
p2824
tp2825
Rp2826
g2790
tp2827
a(I5220000
g1
(g5
S'\xb8\x1e\x85\xebQ\xb84@'
p2828
tp2829
Rp2830
g2790
tp2831
a(I5230000
g1
(g5
S'{\x14\xaeG\xe1\xba4@'
p2832
tp2833
Rp2834
g2790
tp2835
a(I5240000
g1
(g5
S'\xf6(\\\x8f\xc2\xb54@'
p2836
tp2837
Rp2838
g2790
tp2839
a(I5250000
g1
(g5
S'\xb8\x1e\x85\xebQ\xb84@'
p2840
tp2841
Rp2842
g2790
tp2843
a(I5260000
g1
(g5
S'\xb8\x1e\x85\xebQ\xb84@'
p2844
tp2845
Rp2846
g2790
tp2847
a(I5270000
g1
(g5
S'\xb8\x1e\x85\xebQ\xb84@'
p2848
tp2849
Rp2850
g2790
tp2851
a(I5280000
g1
(g5
S'\x00\x00\x00\x00\x00\xc04@'
p2852
tp2853
Rp2854
g1
(g5
S'\x00\x00\x00\x00\x00\xc04@'
p2855
tp2856
Rp2857
tp2858
a(I5290000
g1
(g5
S'\xc3\xf5(\\\x8f\xc24@'
p2859
tp2860
Rp2861
g1
(g5
S'\xc3\xf5(\\\x8f\xc24@'
p2862
tp2863
Rp2864
tp2865
a(I5300000
g1
(g5
S'\x85\xebQ\xb8\x1e\xc54@'
p2866
tp2867
Rp2868
g1
(g5
S'\x85\xebQ\xb8\x1e\xc54@'
p2869
tp2870
Rp2871
tp2872
a(I5310000
g1
(g5
S'\n\xd7\xa3p=\xca4@'
p2873
tp2874
Rp2875
g1
(g5
S'\n\xd7\xa3p=\xca4@'
p2876
tp2877
Rp2878
tp2879
a(I5320000
g1
(g5
S'\xcd\xcc\xcc\xcc\xcc\xcc4@'
p2880
tp2881
Rp2882
g1
(g5
S'\xcd\xcc\xcc\xcc\xcc\xcc4@'
p2883
tp2884
Rp2885
tp2886
a(I5330000
g1
(g5
S'\n\xd7\xa3p=\xca4@'
p2887
tp2888
Rp2889
g2885
tp2890
a(I5340000
g1
(g5
S'\xc3\xf5(\\\x8f\xc24@'
p2891
tp2892
Rp2893
g2885
tp2894
a(I5350000
g1
(g5
S'\n\xd7\xa3p=\xca4@'
p2895
tp2896
Rp2897
g2885
tp2898
a(I5360000
g1
(g5
S'\xc3\xf5(\\\x8f\xc24@'
p2899
tp2900
Rp2901
g2885
tp2902
a(I5370000
g1
(g5
S'\xc3\xf5(\\\x8f\xc24@'
p2903
tp2904
Rp2905
g2885
tp2906
a(I5380000
g1
(g5
S'\x00\x00\x00\x00\x00\xc04@'
p2907
tp2908
Rp2909
g2885
tp2910
a(I5390000
g1
(g5
S'\xc3\xf5(\\\x8f\xc24@'
p2911
tp2912
Rp2913
g2885
tp2914
a(I5400000
g1
(g5
S'\x85\xebQ\xb8\x1e\xc54@'
p2915
tp2916
Rp2917
g2885
tp2918
a(I5410000
g1
(g5
S'\x85\xebQ\xb8\x1e\xc54@'
p2919
tp2920
Rp2921
g2885
tp2922
a(I5420000
g1
(g5
S'\xc3\xf5(\\\x8f\xc24@'
p2923
tp2924
Rp2925
g2885
tp2926
a(I5430000
g1
(g5
S'\n\xd7\xa3p=\xca4@'
p2927
tp2928
Rp2929
g2885
tp2930
a(I5440000
g1
(g5
S'H\xe1z\x14\xae\xc74@'
p2931
tp2932
Rp2933
g2885
tp2934
a(I5450000
g1
(g5
S'\x85\xebQ\xb8\x1e\xc54@'
p2935
tp2936
Rp2937
g2885
tp2938
a(I5460000
g1
(g5
S'\xc3\xf5(\\\x8f\xc24@'
p2939
tp2940
Rp2941
g2885
tp2942
a(I5470000
g1
(g5
S'\xc3\xf5(\\\x8f\xc24@'
p2943
tp2944
Rp2945
g2885
tp2946
a(I5480000
g1
(g5
S'\x00\x00\x00\x00\x00\xc04@'
p2947
tp2948
Rp2949
g2885
tp2950
a(I5490000
g1
(g5
S'\xc3\xf5(\\\x8f\xc24@'
p2951
tp2952
Rp2953
g2885
tp2954
a(I5500000
g1
(g5
S'=\n\xd7\xa3p\xbd4@'
p2955
tp2956
Rp2957
g2885
tp2958
a(I5510000
g1
(g5
S'\n\xd7\xa3p=\xca4@'
p2959
tp2960
Rp2961
g2885
tp2962
a(I5520000
g1
(g5
S'\xc3\xf5(\\\x8f\xc24@'
p2963
tp2964
Rp2965
g2885
tp2966
a(I5530000
g1
(g5
S'\x8f\xc2\xf5(\\\xcf4@'
p2967
tp2968
Rp2969
g1
(g5
S'\x8f\xc2\xf5(\\\xcf4@'
p2970
tp2971
Rp2972
tp2973
a(I5540000
g1
(g5
S'R\xb8\x1e\x85\xeb\xd14@'
p2974
tp2975
Rp2976
g1
(g5
S'R\xb8\x1e\x85\xeb\xd14@'
p2977
tp2978
Rp2979
tp2980
a(I5550000
g1
(g5
S'\x9a\x99\x99\x99\x99\xd94@'
p2981
tp2982
Rp2983
g1
(g5
S'\x9a\x99\x99\x99\x99\xd94@'
p2984
tp2985
Rp2986
tp2987
a(I5560000
g1
(g5
S'\x14\xaeG\xe1z\xd44@'
p2988
tp2989
Rp2990
g2986
tp2991
a(I5570000
g1
(g5
S'\n\xd7\xa3p=\xca4@'
p2992
tp2993
Rp2994
g2986
tp2995
a(I5580000
g1
(g5
S'H\xe1z\x14\xae\xc74@'
p2996
tp2997
Rp2998
g2986
tp2999
a(I5590000
g1
(g5
S'\xc3\xf5(\\\x8f\xc24@'
p3000
tp3001
Rp3002
g2986
tp3003
a(I5600000
g1
(g5
S'\x00\x00\x00\x00\x00\xc04@'
p3004
tp3005
Rp3006
g2986
tp3007
a(I5610000
g1
(g5
S'\xf6(\\\x8f\xc2\xb54@'
p3008
tp3009
Rp3010
g2986
tp3011
a(I5620000
g1
(g5
S'q=\n\xd7\xa3\xb04@'
p3012
tp3013
Rp3014
g2986
tp3015
a(I5630000
g1
(g5
S'q=\n\xd7\xa3\xb04@'
p3016
tp3017
Rp3018
g2986
tp3019
a(I5640000
g1
(g5
S'\xecQ\xb8\x1e\x85\xab4@'
p3020
tp3021
Rp3022
g2986
tp3023
a(I5650000
g1
(g5
S'fffff\xa64@'
p3024
tp3025
Rp3026
g2986
tp3027
a(I5660000
g1
(g5
S'\xe1z\x14\xaeG\xa14@'
p3028
tp3029
Rp3030
g2986
tp3031
a(I5670000
g1
(g5
S'\x1f\x85\xebQ\xb8\x9e4@'
p3032
tp3033
Rp3034
g2986
tp3035
a(I5680000
g1
(g5
S'\\\x8f\xc2\xf5(\x9c4@'
p3036
tp3037
Rp3038
g2986
tp3039
a(I5690000
g1
(g5
S'\x8f\xc2\xf5(\\\x8f4@'
p3040
tp3041
Rp3042
g2986
tp3043
a(I5700000
g1
(g5
S'H\xe1z\x14\xae\x874@'
p3044
tp3045
Rp3046
g2986
tp3047
a(I5710000
g1
(g5
S'H\xe1z\x14\xae\x874@'
p3048
tp3049
Rp3050
g2986
tp3051
a(I5720000
g1
(g5
S'\xc3\xf5(\\\x8f\x824@'
p3052
tp3053
Rp3054
g2986
tp3055
a(I5730000
g1
(g5
S'\x85\xebQ\xb8\x1e\x854@'
p3056
tp3057
Rp3058
g2986
tp3059
a(I5740000
g1
(g5
S'\xcd\xcc\xcc\xcc\xcc\x8c4@'
p3060
tp3061
Rp3062
g2986
tp3063
a(I5750000
g1
(g5
S'\xcd\xcc\xcc\xcc\xcc\x8c4@'
p3064
tp3065
Rp3066
g2986
tp3067
a(I5760000
g1
(g5
S'\x8f\xc2\xf5(\\\x8f4@'
p3068
tp3069
Rp3070
g2986
tp3071
a(I5770000
g1
(g5
S'\x14\xaeG\xe1z\x944@'
p3072
tp3073
Rp3074
g2986
tp3075
a(I5780000
g1
(g5
S'\\\x8f\xc2\xf5(\x9c4@'
p3076
tp3077
Rp3078
g2986
tp3079
a(I5790000
g1
(g5
S'\\\x8f\xc2\xf5(\x9c4@'
p3080
tp3081
Rp3082
g2986
tp3083
a(I5800000
g1
(g5
S'\x9a\x99\x99\x99\x99\x994@'
p3084
tp3085
Rp3086
g2986
tp3087
a(I5810000
g1
(g5
S'\x1f\x85\xebQ\xb8\x9e4@'
p3088
tp3089
Rp3090
g2986
tp3091
a(I5820000
g1
(g5
S'fffff\xa64@'
p3092
tp3093
Rp3094
g2986
tp3095
a(I5830000
g1
(g5
S'\xa4p=\n\xd7\xa34@'
p3096
tp3097
Rp3098
g2986
tp3099
a(I5840000
g1
(g5
S'\xa4p=\n\xd7\xa34@'
p3100
tp3101
Rp3102
g2986
tp3103
a(I5850000
g1
(g5
S'\xe1z\x14\xaeG\xa14@'
p3104
tp3105
Rp3106
g2986
tp3107
a(I5860000
g1
(g5
S'\xecQ\xb8\x1e\x85\xab4@'
p3108
tp3109
Rp3110
g2986
tp3111
a(I5870000
g1
(g5
S'\xaeG\xe1z\x14\xae4@'
p3112
tp3113
Rp3114
g2986
tp3115
a(I5880000
g1
(g5
S'33333\xb34@'
p3116
tp3117
Rp3118
g2986
tp3119
a(I5890000
g1
(g5
S'\xecQ\xb8\x1e\x85\xab4@'
p3120
tp3121
Rp3122
g2986
tp3123
a(I5900000
g1
(g5
S'\\\x8f\xc2\xf5(\x9c4@'
p3124
tp3125
Rp3126
g2986
tp3127
a(I5910000
g1
(g5
S'\x1f\x85\xebQ\xb8\x9e4@'
p3128
tp3129
Rp3130
g2986
tp3131
a(I5920000
g1
(g5
S'fffff\xa64@'
p3132
tp3133
Rp3134
g2986
tp3135
a(I5930000
g1
(g5
S'\xa4p=\n\xd7\xa34@'
p3136
tp3137
Rp3138
g2986
tp3139
a(I5940000
g1
(g5
S'\xd7\xa3p=\n\x974@'
p3140
tp3141
Rp3142
g2986
tp3143
a(I5950000
g1
(g5
S'\xd7\xa3p=\n\x974@'
p3144
tp3145
Rp3146
g2986
tp3147
a(I5960000
g1
(g5
S'\\\x8f\xc2\xf5(\x9c4@'
p3148
tp3149
Rp3150
g2986
tp3151
a(I5970000
g1
(g5
S'\x1f\x85\xebQ\xb8\x9e4@'
p3152
tp3153
Rp3154
g2986
tp3155
a(I5980000
g1
(g5
S'\x9a\x99\x99\x99\x99\x994@'
p3156
tp3157
Rp3158
g2986
tp3159
a(I5990000
g1
(g5
S'\x9a\x99\x99\x99\x99\x994@'
p3160
tp3161
Rp3162
g2986
tp3163
a(I6000000
g1
(g5
S'\xcd\xcc\xcc\xcc\xcc\x8c4@'
p3164
tp3165
Rp3166
g2986
tp3167
a(I6010000
g1
(g5
S'\xcd\xcc\xcc\xcc\xcc\x8c4@'
p3168
tp3169
Rp3170
g2986
tp3171
a(I6020000
g1
(g5
S'\n\xd7\xa3p=\x8a4@'
p3172
tp3173
Rp3174
g2986
tp3175
a(I6030000
g1
(g5
S'\x8f\xc2\xf5(\\\x8f4@'
p3176
tp3177
Rp3178
g2986
tp3179
a(I6040000
g1
(g5
S'H\xe1z\x14\xae\x874@'
p3180
tp3181
Rp3182
g2986
tp3183
a(I6050000
g1
(g5
S'\x85\xebQ\xb8\x1e\x854@'
p3184
tp3185
Rp3186
g2986
tp3187
a(I6060000
g1
(g5
S'\xc3\xf5(\\\x8f\x824@'
p3188
tp3189
Rp3190
g2986
tp3191
a(I6070000
g1
(g5
S'\x8f\xc2\xf5(\\\x8f4@'
p3192
tp3193
Rp3194
g2986
tp3195
a(I6080000
g1
(g5
S'\x8f\xc2\xf5(\\\x8f4@'
p3196
tp3197
Rp3198
g2986
tp3199
a(I6090000
g1
(g5
S'\n\xd7\xa3p=\x8a4@'
p3200
tp3201
Rp3202
g2986
tp3203
a(I6100000
g1
(g5
S'\x8f\xc2\xf5(\\\x8f4@'
p3204
tp3205
Rp3206
g2986
tp3207
a(I6110000
g1
(g5
S'\\\x8f\xc2\xf5(\x9c4@'
p3208
tp3209
Rp3210
g2986
tp3211
a(I6120000
g1
(g5
S'\x9a\x99\x99\x99\x99\x994@'
p3212
tp3213
Rp3214
g2986
tp3215
a(I6130000
g1
(g5
S'\x1f\x85\xebQ\xb8\x9e4@'
p3216
tp3217
Rp3218
g2986
tp3219
a(I6140000
g1
(g5
S'\\\x8f\xc2\xf5(\x9c4@'
p3220
tp3221
Rp3222
g2986
tp3223
a(I6150000
g1
(g5
S'\xa4p=\n\xd7\xa34@'
p3224
tp3225
Rp3226
g2986
tp3227
a(I6160000
g1
(g5
S'\xaeG\xe1z\x14\xae4@'
p3228
tp3229
Rp3230
g2986
tp3231
a(I6170000
g1
(g5
S'q=\n\xd7\xa3\xb04@'
p3232
tp3233
Rp3234
g2986
tp3235
a(I6180000
g1
(g5
S'\xb8\x1e\x85\xebQ\xb84@'
p3236
tp3237
Rp3238
g2986
tp3239
a(I6190000
g1
(g5
S'\xb8\x1e\x85\xebQ\xb84@'
p3240
tp3241
Rp3242
g2986
tp3243
a(I6200000
g1
(g5
S'\x00\x00\x00\x00\x00\xc04@'
p3244
tp3245
Rp3246
g2986
tp3247
a(I6210000
g1
(g5
S'\x85\xebQ\xb8\x1e\xc54@'
p3248
tp3249
Rp3250
g2986
tp3251
a(I6220000
g1
(g5
S'\x8f\xc2\xf5(\\\xcf4@'
p3252
tp3253
Rp3254
g2986
tp3255
a(I6230000
g1
(g5
S'\x14\xaeG\xe1z\xd44@'
p3256
tp3257
Rp3258
g2986
tp3259
a(I6240000
g1
(g5
S'\x14\xaeG\xe1z\xd44@'
p3260
tp3261
Rp3262
g2986
tp3263
a(I6250000
g1
(g5
S'\x9a\x99\x99\x99\x99\xd94@'
p3264
tp3265
Rp3266
g1
(g5
S'\\\x8f\xc2\xf5(\xdc4@'
p3267
tp3268
Rp3269
tp3270
a(I6260000
g1
(g5
S'\xd7\xa3p=\n\xd74@'
p3271
tp3272
Rp3273
g3269
tp3274
a(I6270000
g1
(g5
S'R\xb8\x1e\x85\xeb\xd14@'
p3275
tp3276
Rp3277
g3269
tp3278
a(I6280000
g1
(g5
S'R\xb8\x1e\x85\xeb\xd14@'
p3279
tp3280
Rp3281
g3269
tp3282
a(I6290000
g1
(g5
S'R\xb8\x1e\x85\xeb\xd14@'
p3283
tp3284
Rp3285
g3269
tp3286
a(I6300000
g1
(g5
S'\xcd\xcc\xcc\xcc\xcc\xcc4@'
p3287
tp3288
Rp3289
g3269
tp3290
a(I6310000
g1
(g5
S'H\xe1z\x14\xae\xc74@'
p3291
tp3292
Rp3293
g3269
tp3294
a(I6320000
g1
(g5
S'\xb8\x1e\x85\xebQ\xb84@'
p3295
tp3296
Rp3297
g3269
tp3298
a(I6330000
g1
(g5
S'\xf6(\\\x8f\xc2\xb54@'
p3299
tp3300
Rp3301
g3269
tp3302
a(I6340000
g1
(g5
S'33333\xb34@'
p3303
tp3304
Rp3305
g3269
tp3306
a(I6350000
g1
(g5
S'\xaeG\xe1z\x14\xae4@'
p3307
tp3308
Rp3309
g3269
tp3310
a(I6360000
g1
(g5
S'\xecQ\xb8\x1e\x85\xab4@'
p3311
tp3312
Rp3313
g3269
tp3314
a(I6370000
g1
(g5
S')\\\x8f\xc2\xf5\xa84@'
p3315
tp3316
Rp3317
g3269
tp3318
a(I6380000
g1
(g5
S'\xaeG\xe1z\x14\xae4@'
p3319
tp3320
Rp3321
g3269
tp3322
a(I6390000
g1
(g5
S'\xecQ\xb8\x1e\x85\xab4@'
p3323
tp3324
Rp3325
g3269
tp3326
a(I6400000
g1
(g5
S'\xaeG\xe1z\x14\xae4@'
p3327
tp3328
Rp3329
g3269
tp3330
a(I6410000
g1
(g5
S'\xaeG\xe1z\x14\xae4@'
p3331
tp3332
Rp3333
g3269
tp3334
a(I6420000
g1
(g5
S'\xaeG\xe1z\x14\xae4@'
p3335
tp3336
Rp3337
g3269
tp3338
a(I6430000
g1
(g5
S'\xaeG\xe1z\x14\xae4@'
p3339
tp3340
Rp3341
g3269
tp3342
a(I6440000
g1
(g5
S'\xecQ\xb8\x1e\x85\xab4@'
p3343
tp3344
Rp3345
g3269
tp3346
a(I6450000
g1
(g5
S'33333\xb34@'
p3347
tp3348
Rp3349
g3269
tp3350
a(I6460000
g1
(g5
S'33333\xb34@'
p3351
tp3352
Rp3353
g3269
tp3354
a(I6470000
g1
(g5
S'\xf6(\\\x8f\xc2\xb54@'
p3355
tp3356
Rp3357
g3269
tp3358
a(I6480000
g1
(g5
S'\xf6(\\\x8f\xc2\xb54@'
p3359
tp3360
Rp3361
g3269
tp3362
a(I6490000
g1
(g5
S'\x85\xebQ\xb8\x1e\xc54@'
p3363
tp3364
Rp3365
g3269
tp3366
a(I6500000
g1
(g5
S'\n\xd7\xa3p=\xca4@'
p3367
tp3368
Rp3369
g3269
tp3370
a(I6510000
g1
(g5
S'\n\xd7\xa3p=\xca4@'
p3371
tp3372
Rp3373
g3269
tp3374
a(I6520000
g1
(g5
S'\xc3\xf5(\\\x8f\xc24@'
p3375
tp3376
Rp3377
g3269
tp3378
a(I6530000
g1
(g5
S'\x00\x00\x00\x00\x00\xc04@'
p3379
tp3380
Rp3381
g3269
tp3382
a(I6540000
g1
(g5
S'=\n\xd7\xa3p\xbd4@'
p3383
tp3384
Rp3385
g3269
tp3386
a(I6550000
g1
(g5
S'\xb8\x1e\x85\xebQ\xb84@'
p3387
tp3388
Rp3389
g3269
tp3390
a(I6560000
g1
(g5
S'33333\xb34@'
p3391
tp3392
Rp3393
g3269
tp3394
a(I6570000
g1
(g5
S'\xf6(\\\x8f\xc2\xb54@'
p3395
tp3396
Rp3397
g3269
tp3398
a(I6580000
g1
(g5
S'\xecQ\xb8\x1e\x85\xab4@'
p3399
tp3400
Rp3401
g3269
tp3402
a(I6590000
g1
(g5
S'q=\n\xd7\xa3\xb04@'
p3403
tp3404
Rp3405
g3269
tp3406
a(I6600000
g1
(g5
S'q=\n\xd7\xa3\xb04@'
p3407
tp3408
Rp3409
g3269
tp3410
a(I6610000
g1
(g5
S'\xaeG\xe1z\x14\xae4@'
p3411
tp3412
Rp3413
g3269
tp3414
a(I6620000
g1
(g5
S'\xecQ\xb8\x1e\x85\xab4@'
p3415
tp3416
Rp3417
g3269
tp3418
a(I6630000
g1
(g5
S'\x1f\x85\xebQ\xb8\x9e4@'
p3419
tp3420
Rp3421
g3269
tp3422
a(I6640000
g1
(g5
S'\x1f\x85\xebQ\xb8\x9e4@'
p3423
tp3424
Rp3425
g3269
tp3426
a(I6650000
g1
(g5
S'\\\x8f\xc2\xf5(\x9c4@'
p3427
tp3428
Rp3429
g3269
tp3430
a(I6660000
g1
(g5
S'\x9a\x99\x99\x99\x99\x994@'
p3431
tp3432
Rp3433
g3269
tp3434
a(I6670000
g1
(g5
S'\\\x8f\xc2\xf5(\x9c4@'
p3435
tp3436
Rp3437
g3269
tp3438
a(I6680000
g1
(g5
S'\x1f\x85\xebQ\xb8\x9e4@'
p3439
tp3440
Rp3441
g3269
tp3442
a(I6690000
g1
(g5
S'fffff\xa64@'
p3443
tp3444
Rp3445
g3269
tp3446
a(I6700000
g1
(g5
S')\\\x8f\xc2\xf5\xa84@'
p3447
tp3448
Rp3449
g3269
tp3450
a(I6710000
g1
(g5
S')\\\x8f\xc2\xf5\xa84@'
p3451
tp3452
Rp3453
g3269
tp3454
a(I6720000
g1
(g5
S'fffff\xa64@'
p3455
tp3456
Rp3457
g3269
tp3458
a(I6730000
g1
(g5
S'\xaeG\xe1z\x14\xae4@'
p3459
tp3460
Rp3461
g3269
tp3462
a(I6740000
g1
(g5
S'fffff\xa64@'
p3463
tp3464
Rp3465
g3269
tp3466
a(I6750000
g1
(g5
S')\\\x8f\xc2\xf5\xa84@'
p3467
tp3468
Rp3469
g3269
tp3470
a(I6760000
g1
(g5
S'\xe1z\x14\xaeG\xa14@'
p3471
tp3472
Rp3473
g3269
tp3474
a(I6770000
g1
(g5
S'\xe1z\x14\xaeG\xa14@'
p3475
tp3476
Rp3477
g3269
tp3478
a(I6780000
g1
(g5
S'\xecQ\xb8\x1e\x85\xab4@'
p3479
tp3480
Rp3481
g3269
tp3482
a(I6790000
g1
(g5
S'q=\n\xd7\xa3\xb04@'
p3483
tp3484
Rp3485
g3269
tp3486
a(I6800000
g1
(g5
S'33333\xb34@'
p3487
tp3488
Rp3489
g3269
tp3490
a(I6810000
g1
(g5
S'\xf6(\\\x8f\xc2\xb54@'
p3491
tp3492
Rp3493
g3269
tp3494
a(I6820000
g1
(g5
S'{\x14\xaeG\xe1\xba4@'
p3495
tp3496
Rp3497
g3269
tp3498
a(I6830000
g1
(g5
S'{\x14\xaeG\xe1\xba4@'
p3499
tp3500
Rp3501
g3269
tp3502
a(I6840000
g1
(g5
S'{\x14\xaeG\xe1\xba4@'
p3503
tp3504
Rp3505
g3269
tp3506
a(I6850000
g1
(g5
S'{\x14\xaeG\xe1\xba4@'
p3507
tp3508
Rp3509
g3269
tp3510
a(I6860000
g1
(g5
S'33333\xb34@'
p3511
tp3512
Rp3513
g3269
tp3514
a(I6870000
g1
(g5
S'33333\xb34@'
p3515
tp3516
Rp3517
g3269
tp3518
a(I6880000
g1
(g5
S'\xb8\x1e\x85\xebQ\xb84@'
p3519
tp3520
Rp3521
g3269
tp3522
a(I6890000
g1
(g5
S'\xb8\x1e\x85\xebQ\xb84@'
p3523
tp3524
Rp3525
g3269
tp3526
a(I6900000
g1
(g5
S'\xf6(\\\x8f\xc2\xb54@'
p3527
tp3528
Rp3529
g3269
tp3530
a(I6910000
g1
(g5
S'\x00\x00\x00\x00\x00\xc04@'
p3531
tp3532
Rp3533
g3269
tp3534
a(I6920000
g1
(g5
S'\xcd\xcc\xcc\xcc\xcc\xcc4@'
p3535
tp3536
Rp3537
g3269
tp3538
a(I6930000
g1
(g5
S'\n\xd7\xa3p=\xca4@'
p3539
tp3540
Rp3541
g3269
tp3542
a(I6940000
g1
(g5
S'\n\xd7\xa3p=\xca4@'
p3543
tp3544
Rp3545
g3269
tp3546
a(I6950000
g1
(g5
S'\xc3\xf5(\\\x8f\xc24@'
p3547
tp3548
Rp3549
g3269
tp3550
a(I6960000
g1
(g5
S'{\x14\xaeG\xe1\xba4@'
p3551
tp3552
Rp3553
g3269
tp3554
a(I6970000
g1
(g5
S'\xc3\xf5(\\\x8f\xc24@'
p3555
tp3556
Rp3557
g3269
tp3558
a(I6980000
g1
(g5
S'\xc3\xf5(\\\x8f\xc24@'
p3559
tp3560
Rp3561
g3269
tp3562
a(I6990000
g1
(g5
S'\x00\x00\x00\x00\x00\xc04@'
p3563
tp3564
Rp3565
g3269
tp3566
a(I7000000
g1
(g5
S'\x00\x00\x00\x00\x00\xc04@'
p3567
tp3568
Rp3569
g3269
tp3570
a(I7010000
g1
(g5
S'=\n\xd7\xa3p\xbd4@'
p3571
tp3572
Rp3573
g3269
tp3574
a(I7020000
g1
(g5
S'\x85\xebQ\xb8\x1e\xc54@'
p3575
tp3576
Rp3577
g3269
tp3578
a(I7030000
g1
(g5
S'\x85\xebQ\xb8\x1e\xc54@'
p3579
tp3580
Rp3581
g3269
tp3582
a(I7040000
g1
(g5
S'H\xe1z\x14\xae\xc74@'
p3583
tp3584
Rp3585
g3269
tp3586
a(I7050000
g1
(g5
S'H\xe1z\x14\xae\xc74@'
p3587
tp3588
Rp3589
g3269
tp3590
a(I7060000
g1
(g5
S'\x85\xebQ\xb8\x1e\xc54@'
p3591
tp3592
Rp3593
g3269
tp3594
a(I7070000
g1
(g5
S'\xc3\xf5(\\\x8f\xc24@'
p3595
tp3596
Rp3597
g3269
tp3598
a(I7080000
g1
(g5
S'=\n\xd7\xa3p\xbd4@'
p3599
tp3600
Rp3601
g3269
tp3602
a(I7090000
g1
(g5
S'=\n\xd7\xa3p\xbd4@'
p3603
tp3604
Rp3605
g3269
tp3606
a(I7100000
g1
(g5
S'{\x14\xaeG\xe1\xba4@'
p3607
tp3608
Rp3609
g3269
tp3610
a(I7110000
g1
(g5
S'\x00\x00\x00\x00\x00\xc04@'
p3611
tp3612
Rp3613
g3269
tp3614
a(I7120000
g1
(g5
S'H\xe1z\x14\xae\xc74@'
p3615
tp3616
Rp3617
g3269
tp3618
a(I7130000
g1
(g5
S'H\xe1z\x14\xae\xc74@'
p3619
tp3620
Rp3621
g3269
tp3622
a(I7140000
g1
(g5
S'\xc3\xf5(\\\x8f\xc24@'
p3623
tp3624
Rp3625
g3269
tp3626
a(I7150000
g1
(g5
S'{\x14\xaeG\xe1\xba4@'
p3627
tp3628
Rp3629
g3269
tp3630
a(I7160000
g1
(g5
S'\xb8\x1e\x85\xebQ\xb84@'
p3631
tp3632
Rp3633
g3269
tp3634
a(I7170000
g1
(g5
S'\xb8\x1e\x85\xebQ\xb84@'
p3635
tp3636
Rp3637
g3269
tp3638
a(I7180000
g1
(g5
S'{\x14\xaeG\xe1\xba4@'
p3639
tp3640
Rp3641
g3269
tp3642
a(I7190000
g1
(g5
S'q=\n\xd7\xa3\xb04@'
p3643
tp3644
Rp3645
g3269
tp3646
a(I7200000
g1
(g5
S'\xf6(\\\x8f\xc2\xb54@'
p3647
tp3648
Rp3649
g3269
tp3650
a(I7210000
g1
(g5
S'\xf6(\\\x8f\xc2\xb54@'
p3651
tp3652
Rp3653
g3269
tp3654
a(I7220000
g1
(g5
S'\xf6(\\\x8f\xc2\xb54@'
p3655
tp3656
Rp3657
g3269
tp3658
a(I7230000
g1
(g5
S'\xf6(\\\x8f\xc2\xb54@'
p3659
tp3660
Rp3661
g3269
tp3662
a(I7240000
g1
(g5
S'33333\xb34@'
p3663
tp3664
Rp3665
g3269
tp3666
a(I7250000
g1
(g5
S'\xf6(\\\x8f\xc2\xb54@'
p3667
tp3668
Rp3669
g3269
tp3670
a(I7260000
g1
(g5
S'33333\xb34@'
p3671
tp3672
Rp3673
g3269
tp3674
a(I7270000
g1
(g5
S'\xaeG\xe1z\x14\xae4@'
p3675
tp3676
Rp3677
g3269
tp3678
a(I7280000
g1
(g5
S'\xecQ\xb8\x1e\x85\xab4@'
p3679
tp3680
Rp3681
g3269
tp3682
a(I7290000
g1
(g5
S'\xa4p=\n\xd7\xa34@'
p3683
tp3684
Rp3685
g3269
tp3686
a(I7300000
g1
(g5
S'fffff\xa64@'
p3687
tp3688
Rp3689
g3269
tp3690
a(I7310000
g1
(g5
S'fffff\xa64@'
p3691
tp3692
Rp3693
g3269
tp3694
a(I7320000
g1
(g5
S'fffff\xa64@'
p3695
tp3696
Rp3697
g3269
tp3698
a(I7330000
g1
(g5
S'\x1f\x85\xebQ\xb8\x9e4@'
p3699
tp3700
Rp3701
g3269
tp3702
a(I7340000
g1
(g5
S'\\\x8f\xc2\xf5(\x9c4@'
p3703
tp3704
Rp3705
g3269
tp3706
a(I7350000
g1
(g5
S'\x1f\x85\xebQ\xb8\x9e4@'
p3707
tp3708
Rp3709
g3269
tp3710
a(I7360000
g1
(g5
S'\xe1z\x14\xaeG\xa14@'
p3711
tp3712
Rp3713
g3269
tp3714
a(I7370000
g1
(g5
S'\x14\xaeG\xe1z\x944@'
p3715
tp3716
Rp3717
g3269
tp3718
a(I7380000
g1
(g5
S'\xd7\xa3p=\n\x974@'
p3719
tp3720
Rp3721
g3269
tp3722
a(I7390000
g1
(g5
S'\xd7\xa3p=\n\x974@'
p3723
tp3724
Rp3725
g3269
tp3726
a(I7400000
g1
(g5
S'\x1f\x85\xebQ\xb8\x9e4@'
p3727
tp3728
Rp3729
g3269
tp3730
a(I7410000
g1
(g5
S'fffff\xa64@'
p3731
tp3732
Rp3733
g3269
tp3734
a(I7420000
g1
(g5
S')\\\x8f\xc2\xf5\xa84@'
p3735
tp3736
Rp3737
g3269
tp3738
a(I7430000
g1
(g5
S'\xa4p=\n\xd7\xa34@'
p3739
tp3740
Rp3741
g3269
tp3742
a(I7440000
g1
(g5
S'\xaeG\xe1z\x14\xae4@'
p3743
tp3744
Rp3745
g3269
tp3746
a(I7450000
g1
(g5
S'\xecQ\xb8\x1e\x85\xab4@'
p3747
tp3748
Rp3749
g3269
tp3750
a(I7460000
g1
(g5
S'33333\xb34@'
p3751
tp3752
Rp3753
g3269
tp3754
a(I7470000
g1
(g5
S'fffff\xa64@'
p3755
tp3756
Rp3757
g3269
tp3758
a(I7480000
g1
(g5
S'fffff\xa64@'
p3759
tp3760
Rp3761
g3269
tp3762
a(I7490000
g1
(g5
S'\xaeG\xe1z\x14\xae4@'
p3763
tp3764
Rp3765
g3269
tp3766
a(I7500000
g1
(g5
S'33333\xb34@'
p3767
tp3768
Rp3769
g3269
tp3770
a(I7510000
g1
(g5
S'33333\xb34@'
p3771
tp3772
Rp3773
g3269
tp3774
a(I7520000
g1
(g5
S'q=\n\xd7\xa3\xb04@'
p3775
tp3776
Rp3777
g3269
tp3778
a(I7530000
g1
(g5
S'\xf6(\\\x8f\xc2\xb54@'
p3779
tp3780
Rp3781
g3269
tp3782
a(I7540000
g1
(g5
S'\xb8\x1e\x85\xebQ\xb84@'
p3783
tp3784
Rp3785
g3269
tp3786
a(I7550000
g1
(g5
S'33333\xb34@'
p3787
tp3788
Rp3789
g3269
tp3790
a(I7560000
g1
(g5
S'q=\n\xd7\xa3\xb04@'
p3791
tp3792
Rp3793
g3269
tp3794
a(I7570000
g1
(g5
S')\\\x8f\xc2\xf5\xa84@'
p3795
tp3796
Rp3797
g3269
tp3798
a(I7580000
g1
(g5
S'\xa4p=\n\xd7\xa34@'
p3799
tp3800
Rp3801
g3269
tp3802
a(I7590000
g1
(g5
S'\xcd\xcc\xcc\xcc\xcc\x8c4@'
p3803
tp3804
Rp3805
g3269
tp3806
a(I7600000
g1
(g5
S'H\xe1z\x14\xae\x874@'
p3807
tp3808
Rp3809
g3269
tp3810
a(I7610000
g1
(g5
S'\n\xd7\xa3p=\x8a4@'
p3811
tp3812
Rp3813
g3269
tp3814
a(I7620000
g1
(g5
S'\n\xd7\xa3p=\x8a4@'
p3815
tp3816
Rp3817
g3269
tp3818
a(I7630000
g1
(g5
S'\xcd\xcc\xcc\xcc\xcc\x8c4@'
p3819
tp3820
Rp3821
g3269
tp3822
a(I7640000
g1
(g5
S'\x9a\x99\x99\x99\x99\x994@'
p3823
tp3824
Rp3825
g3269
tp3826
a(I7650000
g1
(g5
S'\x14\xaeG\xe1z\x944@'
p3827
tp3828
Rp3829
g3269
tp3830
a(I7660000
g1
(g5
S'\n\xd7\xa3p=\x8a4@'
p3831
tp3832
Rp3833
g3269
tp3834
a(I7670000
g1
(g5
S'\xc3\xf5(\\\x8f\x824@'
p3835
tp3836
Rp3837
g3269
tp3838
a(I7680000
g1
(g5
S'\xc3\xf5(\\\x8f\x824@'
p3839
tp3840
Rp3841
g3269
tp3842
a(I7690000
g1
(g5
S'\xc3\xf5(\\\x8f\x824@'
p3843
tp3844
Rp3845
g3269
tp3846
a(I7700000
g1
(g5
S'=\n\xd7\xa3p}4@'
p3847
tp3848
Rp3849
g3269
tp3850
a(I7710000
g1
(g5
S'\x85\xebQ\xb8\x1e\x854@'
p3851
tp3852
Rp3853
g3269
tp3854
a(I7720000
g1
(g5
S'H\xe1z\x14\xae\x874@'
p3855
tp3856
Rp3857
g3269
tp3858
a(I7730000
g1
(g5
S'\n\xd7\xa3p=\x8a4@'
p3859
tp3860
Rp3861
g3269
tp3862
a(I7740000
g1
(g5
S'R\xb8\x1e\x85\xeb\x914@'
p3863
tp3864
Rp3865
g3269
tp3866
a(I7750000
g1
(g5
S'\x8f\xc2\xf5(\\\x8f4@'
p3867
tp3868
Rp3869
g3269
tp3870
a(I7760000
g1
(g5
S'\xa4p=\n\xd7\xa34@'
p3871
tp3872
Rp3873
g3269
tp3874
a(I7770000
g1
(g5
S')\\\x8f\xc2\xf5\xa84@'
p3875
tp3876
Rp3877
g3269
tp3878
a(I7780000
g1
(g5
S'\xecQ\xb8\x1e\x85\xab4@'
p3879
tp3880
Rp3881
g3269
tp3882
a(I7790000
g1
(g5
S'\xaeG\xe1z\x14\xae4@'
p3883
tp3884
Rp3885
g3269
tp3886
a(I7800000
g1
(g5
S')\\\x8f\xc2\xf5\xa84@'
p3887
tp3888
Rp3889
g3269
tp3890
a(I7810000
g1
(g5
S'\xa4p=\n\xd7\xa34@'
p3891
tp3892
Rp3893
g3269
tp3894
a(I7820000
g1
(g5
S'\xecQ\xb8\x1e\x85\xab4@'
p3895
tp3896
Rp3897
g3269
tp3898
a(I7830000
g1
(g5
S'33333\xb34@'
p3899
tp3900
Rp3901
g3269
tp3902
a(I7840000
g1
(g5
S'q=\n\xd7\xa3\xb04@'
p3903
tp3904
Rp3905
g3269
tp3906
a(I7850000
g1
(g5
S'33333\xb34@'
p3907
tp3908
Rp3909
g3269
tp3910
a(I7860000
g1
(g5
S'\xa4p=\n\xd7\xa34@'
p3911
tp3912
Rp3913
g3269
tp3914
a(I7870000
g1
(g5
S'\xecQ\xb8\x1e\x85\xab4@'
p3915
tp3916
Rp3917
g3269
tp3918
a(I7880000
g1
(g5
S'\xecQ\xb8\x1e\x85\xab4@'
p3919
tp3920
Rp3921
g3269
tp3922
a(I7890000
g1
(g5
S'\xa4p=\n\xd7\xa34@'
p3923
tp3924
Rp3925
g3269
tp3926
a(I7900000
g1
(g5
S'\x1f\x85\xebQ\xb8\x9e4@'
p3927
tp3928
Rp3929
g3269
tp3930
a(I7910000
g1
(g5
S'R\xb8\x1e\x85\xeb\x914@'
p3931
tp3932
Rp3933
g3269
tp3934
a(I7920000
g1
(g5
S'\xcd\xcc\xcc\xcc\xcc\x8c4@'
p3935
tp3936
Rp3937
g3269
tp3938
a(I7930000
g1
(g5
S'\xcd\xcc\xcc\xcc\xcc\x8c4@'
p3939
tp3940
Rp3941
g3269
tp3942
a(I7940000
g1
(g5
S'\xcd\xcc\xcc\xcc\xcc\x8c4@'
p3943
tp3944
Rp3945
g3269
tp3946
a(I7950000
g1
(g5
S'\x8f\xc2\xf5(\\\x8f4@'
p3947
tp3948
Rp3949
g3269
tp3950
a(I7960000
g1
(g5
S'\n\xd7\xa3p=\x8a4@'
p3951
tp3952
Rp3953
g3269
tp3954
a(I7970000
g1
(g5
S'\xcd\xcc\xcc\xcc\xcc\x8c4@'
p3955
tp3956
Rp3957
g3269
tp3958
a(I7980000
g1
(g5
S'\xcd\xcc\xcc\xcc\xcc\x8c4@'
p3959
tp3960
Rp3961
g3269
tp3962
a(I7990000
g1
(g5
S'R\xb8\x1e\x85\xeb\x914@'
p3963
tp3964
Rp3965
g3269
tp3966
a(I8000000
g1
(g5
S'R\xb8\x1e\x85\xeb\x914@'
p3967
tp3968
Rp3969
g3269
tp3970
a(I8010000
g1
(g5
S'\xe1z\x14\xaeG\xa14@'
p3971
tp3972
Rp3973
g3269
tp3974
a(I8020000
g1
(g5
S'\xa4p=\n\xd7\xa34@'
p3975
tp3976
Rp3977
g3269
tp3978
a(I8030000
g1
(g5
S'\xa4p=\n\xd7\xa34@'
p3979
tp3980
Rp3981
g3269
tp3982
a(I8040000
g1
(g5
S'\xe1z\x14\xaeG\xa14@'
p3983
tp3984
Rp3985
g3269
tp3986
a(I8050000
g1
(g5
S'\x1f\x85\xebQ\xb8\x9e4@'
p3987
tp3988
Rp3989
g3269
tp3990
a(I8060000
g1
(g5
S'\x1f\x85\xebQ\xb8\x9e4@'
p3991
tp3992
Rp3993
g3269
tp3994
a(I8070000
g1
(g5
S'\xa4p=\n\xd7\xa34@'
p3995
tp3996
Rp3997
g3269
tp3998
a(I8080000
g1
(g5
S'\xf6(\\\x8f\xc2\xb54@'
p3999
tp4000
Rp4001
g3269
tp4002
a(I8090000
g1
(g5
S'\xf6(\\\x8f\xc2\xb54@'
p4003
tp4004
Rp4005
g3269
tp4006
a(I8100000
g1
(g5
S')\\\x8f\xc2\xf5\xa84@'
p4007
tp4008
Rp4009
g3269
tp4010
a(I8110000
g1
(g5
S'\\\x8f\xc2\xf5(\x9c4@'
p4011
tp4012
Rp4013
g3269
tp4014
a(I8120000
g1
(g5
S'\xd7\xa3p=\n\x974@'
p4015
tp4016
Rp4017
g3269
tp4018
a(I8130000
g1
(g5
S'\xd7\xa3p=\n\x974@'
p4019
tp4020
Rp4021
g3269
tp4022
a(I8140000
g1
(g5
S'\x14\xaeG\xe1z\x944@'
p4023
tp4024
Rp4025
g3269
tp4026
a(I8150000
g1
(g5
S'\x9a\x99\x99\x99\x99\x994@'
p4027
tp4028
Rp4029
g3269
tp4030
a(I8160000
g1
(g5
S'\xcd\xcc\xcc\xcc\xcc\x8c4@'
p4031
tp4032
Rp4033
g3269
tp4034
a(I8170000
g1
(g5
S'\n\xd7\xa3p=\x8a4@'
p4035
tp4036
Rp4037
g3269
tp4038
a(I8180000
g1
(g5
S'\xcd\xcc\xcc\xcc\xcc\x8c4@'
p4039
tp4040
Rp4041
g3269
tp4042
a(I8190000
g1
(g5
S'R\xb8\x1e\x85\xeb\x914@'
p4043
tp4044
Rp4045
g3269
tp4046
a(I8200000
g1
(g5
S'\xd7\xa3p=\n\x974@'
p4047
tp4048
Rp4049
g3269
tp4050
a(I8210000
g1
(g5
S'\xd7\xa3p=\n\x974@'
p4051
tp4052
Rp4053
g3269
tp4054
a(I8220000
g1
(g5
S'\x9a\x99\x99\x99\x99\x994@'
p4055
tp4056
Rp4057
g3269
tp4058
a(I8230000
g1
(g5
S'\xd7\xa3p=\n\x974@'
p4059
tp4060
Rp4061
g3269
tp4062
a(I8240000
g1
(g5
S'\x9a\x99\x99\x99\x99\x994@'
p4063
tp4064
Rp4065
g3269
tp4066
a(I8250000
g1
(g5
S'\xd7\xa3p=\n\x974@'
p4067
tp4068
Rp4069
g3269
tp4070
a(I8260000
g1
(g5
S'\x9a\x99\x99\x99\x99\x994@'
p4071
tp4072
Rp4073
g3269
tp4074
a(I8270000
g1
(g5
S')\\\x8f\xc2\xf5\xa84@'
p4075
tp4076
Rp4077
g3269
tp4078
a(I8280000
g1
(g5
S')\\\x8f\xc2\xf5\xa84@'
p4079
tp4080
Rp4081
g3269
tp4082
a(I8290000
g1
(g5
S'q=\n\xd7\xa3\xb04@'
p4083
tp4084
Rp4085
g3269
tp4086
a(I8300000
g1
(g5
S'\xaeG\xe1z\x14\xae4@'
p4087
tp4088
Rp4089
g3269
tp4090
a(I8310000
g1
(g5
S'\xaeG\xe1z\x14\xae4@'
p4091
tp4092
Rp4093
g3269
tp4094
a(I8320000
g1
(g5
S'33333\xb34@'
p4095
tp4096
Rp4097
g3269
tp4098
a(I8330000
g1
(g5
S'\xf6(\\\x8f\xc2\xb54@'
p4099
tp4100
Rp4101
g3269
tp4102
a(I8340000
g1
(g5
S'\xf6(\\\x8f\xc2\xb54@'
p4103
tp4104
Rp4105
g3269
tp4106
a(I8350000
g1
(g5
S'\xf6(\\\x8f\xc2\xb54@'
p4107
tp4108
Rp4109
g3269
tp4110
a(I8360000
g1
(g5
S'{\x14\xaeG\xe1\xba4@'
p4111
tp4112
Rp4113
g3269
tp4114
a(I8370000
g1
(g5
S'\xb8\x1e\x85\xebQ\xb84@'
p4115
tp4116
Rp4117
g3269
tp4118
a(I8380000
g1
(g5
S'{\x14\xaeG\xe1\xba4@'
p4119
tp4120
Rp4121
g3269
tp4122
a(I8390000
g1
(g5
S'\x00\x00\x00\x00\x00\xc04@'
p4123
tp4124
Rp4125
g3269
tp4126
a(I8400000
g1
(g5
S'=\n\xd7\xa3p\xbd4@'
p4127
tp4128
Rp4129
g3269
tp4130
a(I8410000
g1
(g5
S'\xf6(\\\x8f\xc2\xb54@'
p4131
tp4132
Rp4133
g3269
tp4134
a(I8420000
g1
(g5
S'q=\n\xd7\xa3\xb04@'
p4135
tp4136
Rp4137
g3269
tp4138
a(I8430000
g1
(g5
S'\xb8\x1e\x85\xebQ\xb84@'
p4139
tp4140
Rp4141
g3269
tp4142
a(I8440000
g1
(g5
S'\xb8\x1e\x85\xebQ\xb84@'
p4143
tp4144
Rp4145
g3269
tp4146
a(I8450000
g1
(g5
S'\xf6(\\\x8f\xc2\xb54@'
p4147
tp4148
Rp4149
g3269
tp4150
a(I8460000
g1
(g5
S'33333\xb34@'
p4151
tp4152
Rp4153
g3269
tp4154
a(I8470000
g1
(g5
S'\xf6(\\\x8f\xc2\xb54@'
p4155
tp4156
Rp4157
g3269
tp4158
a(I8480000
g1
(g5
S'33333\xb34@'
p4159
tp4160
Rp4161
g3269
tp4162
a(I8490000
g1
(g5
S'{\x14\xaeG\xe1\xba4@'
p4163
tp4164
Rp4165
g3269
tp4166
a(I8500000
g1
(g5
S'{\x14\xaeG\xe1\xba4@'
p4167
tp4168
Rp4169
g3269
tp4170
a(I8510000
g1
(g5
S'=\n\xd7\xa3p\xbd4@'
p4171
tp4172
Rp4173
g3269
tp4174
a(I8520000
g1
(g5
S'{\x14\xaeG\xe1\xba4@'
p4175
tp4176
Rp4177
g3269
tp4178
a(I8530000
g1
(g5
S'33333\xb34@'
p4179
tp4180
Rp4181
g3269
tp4182
a(I8540000
g1
(g5
S')\\\x8f\xc2\xf5\xa84@'
p4183
tp4184
Rp4185
g3269
tp4186
a(I8550000
g1
(g5
S'\xe1z\x14\xaeG\xa14@'
p4187
tp4188
Rp4189
g3269
tp4190
a(I8560000
g1
(g5
S'\x1f\x85\xebQ\xb8\x9e4@'
p4191
tp4192
Rp4193
g3269
tp4194
a(I8570000
g1
(g5
S'\xd7\xa3p=\n\x974@'
p4195
tp4196
Rp4197
g3269
tp4198
a(I8580000
g1
(g5
S'\\\x8f\xc2\xf5(\x9c4@'
p4199
tp4200
Rp4201
g3269
tp4202
a(I8590000
g1
(g5
S'\xe1z\x14\xaeG\xa14@'
p4203
tp4204
Rp4205
g3269
tp4206
a(I8600000
g1
(g5
S'\\\x8f\xc2\xf5(\x9c4@'
p4207
tp4208
Rp4209
g3269
tp4210
a(I8610000
g1
(g5
S'\xa4p=\n\xd7\xa34@'
p4211
tp4212
Rp4213
g3269
tp4214
a(I8620000
g1
(g5
S'\xe1z\x14\xaeG\xa14@'
p4215
tp4216
Rp4217
g3269
tp4218
a(I8630000
g1
(g5
S')\\\x8f\xc2\xf5\xa84@'
p4219
tp4220
Rp4221
g3269
tp4222
a(I8640000
g1
(g5
S')\\\x8f\xc2\xf5\xa84@'
p4223
tp4224
Rp4225
g3269
tp4226
a(I8650000
g1
(g5
S'\xecQ\xb8\x1e\x85\xab4@'
p4227
tp4228
Rp4229
g3269
tp4230
a(I8660000
g1
(g5
S')\\\x8f\xc2\xf5\xa84@'
p4231
tp4232
Rp4233
g3269
tp4234
a(I8670000
g1
(g5
S')\\\x8f\xc2\xf5\xa84@'
p4235
tp4236
Rp4237
g3269
tp4238
a(I8680000
g1
(g5
S'\xa4p=\n\xd7\xa34@'
p4239
tp4240
Rp4241
g3269
tp4242
a(I8690000
g1
(g5
S'\xa4p=\n\xd7\xa34@'
p4243
tp4244
Rp4245
g3269
tp4246
a(I8700000
g1
(g5
S'fffff\xa64@'
p4247
tp4248
Rp4249
g3269
tp4250
a(I8710000
g1
(g5
S'\xb8\x1e\x85\xebQ\xb84@'
p4251
tp4252
Rp4253
g3269
tp4254
a(I8720000
g1
(g5
S'=\n\xd7\xa3p\xbd4@'
p4255
tp4256
Rp4257
g3269
tp4258
a(I8730000
g1
(g5
S'{\x14\xaeG\xe1\xba4@'
p4259
tp4260
Rp4261
g3269
tp4262
a(I8740000
g1
(g5
S'\x00\x00\x00\x00\x00\xc04@'
p4263
tp4264
Rp4265
g3269
tp4266
a(I8750000
g1
(g5
S'\xb8\x1e\x85\xebQ\xb84@'
p4267
tp4268
Rp4269
g3269
tp4270
a(I8760000
g1
(g5
S'{\x14\xaeG\xe1\xba4@'
p4271
tp4272
Rp4273
g3269
tp4274
a(I8770000
g1
(g5
S'\xb8\x1e\x85\xebQ\xb84@'
p4275
tp4276
Rp4277
g3269
tp4278
a(I8780000
g1
(g5
S'=\n\xd7\xa3p\xbd4@'
p4279
tp4280
Rp4281
g3269
tp4282
a(I8790000
g1
(g5
S'\xf6(\\\x8f\xc2\xb54@'
p4283
tp4284
Rp4285
g3269
tp4286
a(I8800000
g1
(g5
S'q=\n\xd7\xa3\xb04@'
p4287
tp4288
Rp4289
g3269
tp4290
a(I8810000
g1
(g5
S'33333\xb34@'
p4291
tp4292
Rp4293
g3269
tp4294
a(I8820000
g1
(g5
S'q=\n\xd7\xa3\xb04@'
p4295
tp4296
Rp4297
g3269
tp4298
a(I8830000
g1
(g5
S'33333\xb34@'
p4299
tp4300
Rp4301
g3269
tp4302
a(I8840000
g1
(g5
S'\xecQ\xb8\x1e\x85\xab4@'
p4303
tp4304
Rp4305
g3269
tp4306
a(I8850000
g1
(g5
S'\xf6(\\\x8f\xc2\xb54@'
p4307
tp4308
Rp4309
g3269
tp4310
a(I8860000
g1
(g5
S'33333\xb34@'
p4311
tp4312
Rp4313
g3269
tp4314
a(I8870000
g1
(g5
S'\xf6(\\\x8f\xc2\xb54@'
p4315
tp4316
Rp4317
g3269
tp4318
a(I8880000
g1
(g5
S'\xf6(\\\x8f\xc2\xb54@'
p4319
tp4320
Rp4321
g3269
tp4322
a(I8890000
g1
(g5
S'33333\xb34@'
p4323
tp4324
Rp4325
g3269
tp4326
a(I8900000
g1
(g5
S')\\\x8f\xc2\xf5\xa84@'
p4327
tp4328
Rp4329
g3269
tp4330
a(I8910000
g1
(g5
S'fffff\xa64@'
p4331
tp4332
Rp4333
g3269
tp4334
a(I8920000
g1
(g5
S'\xe1z\x14\xaeG\xa14@'
p4335
tp4336
Rp4337
g3269
tp4338
a(I8930000
g1
(g5
S'\x9a\x99\x99\x99\x99\x994@'
p4339
tp4340
Rp4341
g3269
tp4342
a(I8940000
g1
(g5
S'\x8f\xc2\xf5(\\\x8f4@'
p4343
tp4344
Rp4345
g3269
tp4346
a(I8950000
g1
(g5
S'\x85\xebQ\xb8\x1e\x854@'
p4347
tp4348
Rp4349
g3269
tp4350
a(I8960000
g1
(g5
S'\n\xd7\xa3p=\x8a4@'
p4351
tp4352
Rp4353
g3269
tp4354
a(I8970000
g1
(g5
S'\x8f\xc2\xf5(\\\x8f4@'
p4355
tp4356
Rp4357
g3269
tp4358
a(I8980000
g1
(g5
S'\x8f\xc2\xf5(\\\x8f4@'
p4359
tp4360
Rp4361
g3269
tp4362
a(I8990000
g1
(g5
S'\xcd\xcc\xcc\xcc\xcc\x8c4@'
p4363
tp4364
Rp4365
g3269
tp4366
a(I9000000
g1
(g5
S'\x85\xebQ\xb8\x1e\x854@'
p4367
tp4368
Rp4369
g3269
tp4370
a(I9010000
g1
(g5
S'\xcd\xcc\xcc\xcc\xcc\x8c4@'
p4371
tp4372
Rp4373
g3269
tp4374
a(I9020000
g1
(g5
S'\x85\xebQ\xb8\x1e\x854@'
p4375
tp4376
Rp4377
g3269
tp4378
a(I9030000
g1
(g5
S'\x85\xebQ\xb8\x1e\x854@'
p4379
tp4380
Rp4381
g3269
tp4382
a(I9040000
g1
(g5
S'\xc3\xf5(\\\x8f\x824@'
p4383
tp4384
Rp4385
g3269
tp4386
a(I9050000
g1
(g5
S'\x00\x00\x00\x00\x00\x804@'
p4387
tp4388
Rp4389
g3269
tp4390
a(I9060000
g1
(g5
S'\xc3\xf5(\\\x8f\x824@'
p4391
tp4392
Rp4393
g3269
tp4394
a(I9070000
g1
(g5
S'\xcd\xcc\xcc\xcc\xcc\x8c4@'
p4395
tp4396
Rp4397
g3269
tp4398
a(I9080000
g1
(g5
S'\xd7\xa3p=\n\x974@'
p4399
tp4400
Rp4401
g3269
tp4402
a(I9090000
g1
(g5
S'\x1f\x85\xebQ\xb8\x9e4@'
p4403
tp4404
Rp4405
g3269
tp4406
a(I9100000
g1
(g5
S'\xa4p=\n\xd7\xa34@'
p4407
tp4408
Rp4409
g3269
tp4410
a(I9110000
g1
(g5
S')\\\x8f\xc2\xf5\xa84@'
p4411
tp4412
Rp4413
g3269
tp4414
a(I9120000
g1
(g5
S'q=\n\xd7\xa3\xb04@'
p4415
tp4416
Rp4417
g3269
tp4418
a(I9130000
g1
(g5
S'\xf6(\\\x8f\xc2\xb54@'
p4419
tp4420
Rp4421
g3269
tp4422
a(I9140000
g1
(g5
S'33333\xb34@'
p4423
tp4424
Rp4425
g3269
tp4426
a(I9150000
g1
(g5
S')\\\x8f\xc2\xf5\xa84@'
p4427
tp4428
Rp4429
g3269
tp4430
a(I9160000
g1
(g5
S'q=\n\xd7\xa3\xb04@'
p4431
tp4432
Rp4433
g3269
tp4434
a(I9170000
g1
(g5
S'\xb8\x1e\x85\xebQ\xb84@'
p4435
tp4436
Rp4437
g3269
tp4438
a(I9180000
g1
(g5
S'33333\xb34@'
p4439
tp4440
Rp4441
g3269
tp4442
a(I9190000
g1
(g5
S'q=\n\xd7\xa3\xb04@'
p4443
tp4444
Rp4445
g3269
tp4446
a(I9200000
g1
(g5
S'\xa4p=\n\xd7\xa34@'
p4447
tp4448
Rp4449
g3269
tp4450
a(I9210000
g1
(g5
S'\x1f\x85\xebQ\xb8\x9e4@'
p4451
tp4452
Rp4453
g3269
tp4454
a(I9220000
g1
(g5
S'\xd7\xa3p=\n\x974@'
p4455
tp4456
Rp4457
g3269
tp4458
a(I9230000
g1
(g5
S'\x8f\xc2\xf5(\\\x8f4@'
p4459
tp4460
Rp4461
g3269
tp4462
a(I9240000
g1
(g5
S'\xd7\xa3p=\n\x974@'
p4463
tp4464
Rp4465
g3269
tp4466
a(I9250000
g1
(g5
S'\x9a\x99\x99\x99\x99\x994@'
p4467
tp4468
Rp4469
g3269
tp4470
a(I9260000
g1
(g5
S'\x14\xaeG\xe1z\x944@'
p4471
tp4472
Rp4473
g3269
tp4474
a(I9270000
g1
(g5
S'\x14\xaeG\xe1z\x944@'
p4475
tp4476
Rp4477
g3269
tp4478
a(I9280000
g1
(g5
S'R\xb8\x1e\x85\xeb\x914@'
p4479
tp4480
Rp4481
g3269
tp4482
a(I9290000
g1
(g5
S'\x14\xaeG\xe1z\x944@'
p4483
tp4484
Rp4485
g3269
tp4486
a(I9300000
g1
(g5
S'R\xb8\x1e\x85\xeb\x914@'
p4487
tp4488
Rp4489
g3269
tp4490
a(I9310000
g1
(g5
S'\n\xd7\xa3p=\x8a4@'
p4491
tp4492
Rp4493
g3269
tp4494
a(I9320000
g1
(g5
S'\x14\xaeG\xe1z\x944@'
p4495
tp4496
Rp4497
g3269
tp4498
a(I9330000
g1
(g5
S'\x8f\xc2\xf5(\\\x8f4@'
p4499
tp4500
Rp4501
g3269
tp4502
a(I9340000
g1
(g5
S'\n\xd7\xa3p=\x8a4@'
p4503
tp4504
Rp4505
g3269
tp4506
a(I9350000
g1
(g5
S'\xd7\xa3p=\n\x974@'
p4507
tp4508
Rp4509
g3269
tp4510
a(I9360000
g1
(g5
S'\\\x8f\xc2\xf5(\x9c4@'
p4511
tp4512
Rp4513
g3269
tp4514
a(I9370000
g1
(g5
S')\\\x8f\xc2\xf5\xa84@'
p4515
tp4516
Rp4517
g3269
tp4518
a(I9380000
g1
(g5
S'q=\n\xd7\xa3\xb04@'
p4519
tp4520
Rp4521
g3269
tp4522
a(I9390000
g1
(g5
S'\x00\x00\x00\x00\x00\xc04@'
p4523
tp4524
Rp4525
g3269
tp4526
a(I9400000
g1
(g5
S'\x85\xebQ\xb8\x1e\xc54@'
p4527
tp4528
Rp4529
g3269
tp4530
a(I9410000
g1
(g5
S'\xc3\xf5(\\\x8f\xc24@'
p4531
tp4532
Rp4533
g3269
tp4534
a(I9420000
g1
(g5
S'\xb8\x1e\x85\xebQ\xb84@'
p4535
tp4536
Rp4537
g3269
tp4538
a(I9430000
g1
(g5
S'=\n\xd7\xa3p\xbd4@'
p4539
tp4540
Rp4541
g3269
tp4542
a(I9440000
g1
(g5
S'{\x14\xaeG\xe1\xba4@'
p4543
tp4544
Rp4545
g3269
tp4546
a(I9450000
g1
(g5
S'=\n\xd7\xa3p\xbd4@'
p4547
tp4548
Rp4549
g3269
tp4550
a(I9460000
g1
(g5
S'=\n\xd7\xa3p\xbd4@'
p4551
tp4552
Rp4553
g3269
tp4554
a(I9470000
g1
(g5
S'\x00\x00\x00\x00\x00\xc04@'
p4555
tp4556
Rp4557
g3269
tp4558
a(I9480000
g1
(g5
S'H\xe1z\x14\xae\xc74@'
p4559
tp4560
Rp4561
g3269
tp4562
a(I9490000
g1
(g5
S'=\n\xd7\xa3p\xbd4@'
p4563
tp4564
Rp4565
g3269
tp4566
a(I9500000
g1
(g5
S'=\n\xd7\xa3p\xbd4@'
p4567
tp4568
Rp4569
g3269
tp4570
a(I9510000
g1
(g5
S'=\n\xd7\xa3p\xbd4@'
p4571
tp4572
Rp4573
g3269
tp4574
a(I9520000
g1
(g5
S'\xb8\x1e\x85\xebQ\xb84@'
p4575
tp4576
Rp4577
g3269
tp4578
a(I9530000
g1
(g5
S'\xf6(\\\x8f\xc2\xb54@'
p4579
tp4580
Rp4581
g3269
tp4582
a(I9540000
g1
(g5
S'33333\xb34@'
p4583
tp4584
Rp4585
g3269
tp4586
a(I9550000
g1
(g5
S'\xecQ\xb8\x1e\x85\xab4@'
p4587
tp4588
Rp4589
g3269
tp4590
a(I9560000
g1
(g5
S'\xecQ\xb8\x1e\x85\xab4@'
p4591
tp4592
Rp4593
g3269
tp4594
a(I9570000
g1
(g5
S'\xecQ\xb8\x1e\x85\xab4@'
p4595
tp4596
Rp4597
g3269
tp4598
a(I9580000
g1
(g5
S'\xecQ\xb8\x1e\x85\xab4@'
p4599
tp4600
Rp4601
g3269
tp4602
a(I9590000
g1
(g5
S'q=\n\xd7\xa3\xb04@'
p4603
tp4604
Rp4605
g3269
tp4606
a(I9600000
g1
(g5
S'q=\n\xd7\xa3\xb04@'
p4607
tp4608
Rp4609
g3269
tp4610
a(I9610000
g1
(g5
S'\xf6(\\\x8f\xc2\xb54@'
p4611
tp4612
Rp4613
g3269
tp4614
a(I9620000
g1
(g5
S'\xb8\x1e\x85\xebQ\xb84@'
p4615
tp4616
Rp4617
g3269
tp4618
a(I9630000
g1
(g5
S'33333\xb34@'
p4619
tp4620
Rp4621
g3269
tp4622
a(I9640000
g1
(g5
S'33333\xb34@'
p4623
tp4624
Rp4625
g3269
tp4626
a(I9650000
g1
(g5
S'q=\n\xd7\xa3\xb04@'
p4627
tp4628
Rp4629
g3269
tp4630
a(I9660000
g1
(g5
S'\xb8\x1e\x85\xebQ\xb84@'
p4631
tp4632
Rp4633
g3269
tp4634
a(I9670000
g1
(g5
S'{\x14\xaeG\xe1\xba4@'
p4635
tp4636
Rp4637
g3269
tp4638
a(I9680000
g1
(g5
S'\x00\x00\x00\x00\x00\xc04@'
p4639
tp4640
Rp4641
g3269
tp4642
a(I9690000
g1
(g5
S'\xb8\x1e\x85\xebQ\xb84@'
p4643
tp4644
Rp4645
g3269
tp4646
a(I9700000
g1
(g5
S'q=\n\xd7\xa3\xb04@'
p4647
tp4648
Rp4649
g3269
tp4650
a(I9710000
g1
(g5
S'q=\n\xd7\xa3\xb04@'
p4651
tp4652
Rp4653
g3269
tp4654
a(I9720000
g1
(g5
S'q=\n\xd7\xa3\xb04@'
p4655
tp4656
Rp4657
g3269
tp4658
a(I9730000
g1
(g5
S'33333\xb34@'
p4659
tp4660
Rp4661
g3269
tp4662
a(I9740000
g1
(g5
S'\xaeG\xe1z\x14\xae4@'
p4663
tp4664
Rp4665
g3269
tp4666
a(I9750000
g1
(g5
S'q=\n\xd7\xa3\xb04@'
p4667
tp4668
Rp4669
g3269
tp4670
a(I9760000
g1
(g5
S'\xaeG\xe1z\x14\xae4@'
p4671
tp4672
Rp4673
g3269
tp4674
a(I9770000
g1
(g5
S'q=\n\xd7\xa3\xb04@'
p4675
tp4676
Rp4677
g3269
tp4678
a(I9780000
g1
(g5
S'33333\xb34@'
p4679
tp4680
Rp4681
g3269
tp4682
a(I9790000
g1
(g5
S'\xaeG\xe1z\x14\xae4@'
p4683
tp4684
Rp4685
g3269
tp4686
a(I9800000
g1
(g5
S'33333\xb34@'
p4687
tp4688
Rp4689
g3269
tp4690
a(I9810000
g1
(g5
S'\xb8\x1e\x85\xebQ\xb84@'
p4691
tp4692
Rp4693
g3269
tp4694
a(I9820000
g1
(g5
S'=\n\xd7\xa3p\xbd4@'
p4695
tp4696
Rp4697
g3269
tp4698
a(I9830000
g1
(g5
S'\x00\x00\x00\x00\x00\xc04@'
p4699
tp4700
Rp4701
g3269
tp4702
a(I9840000
g1
(g5
S'\xc3\xf5(\\\x8f\xc24@'
p4703
tp4704
Rp4705
g3269
tp4706
a(I9850000
g1
(g5
S'\x85\xebQ\xb8\x1e\xc54@'
p4707
tp4708
Rp4709
g3269
tp4710
a(I9860000
g1
(g5
S'H\xe1z\x14\xae\xc74@'
p4711
tp4712
Rp4713
g3269
tp4714
a(I9870000
g1
(g5
S'\x14\xaeG\xe1z\xd44@'
p4715
tp4716
Rp4717
g3269
tp4718
a(I9880000
g1
(g5
S'\x14\xaeG\xe1z\xd44@'
p4719
tp4720
Rp4721
g3269
tp4722
a(I9890000
g1
(g5
S'\x9a\x99\x99\x99\x99\xd94@'
p4723
tp4724
Rp4725
g3269
tp4726
a(I9900000
g1
(g5
S'\x1f\x85\xebQ\xb8\xde4@'
p4727
tp4728
Rp4729
g1
(g5
S'\x1f\x85\xebQ\xb8\xde4@'
p4730
tp4731
Rp4732
tp4733
a(I9910000
g1
(g5
S'\x9a\x99\x99\x99\x99\xd94@'
p4734
tp4735
Rp4736
g4732
tp4737
a(I9920000
g1
(g5
S'\\\x8f\xc2\xf5(\xdc4@'
p4738
tp4739
Rp4740
g4732
tp4741
a(I9930000
g1
(g5
S'\x9a\x99\x99\x99\x99\xd94@'
p4742
tp4743
Rp4744
g4732
tp4745
a(I9940000
g1
(g5
S'R\xb8\x1e\x85\xeb\xd14@'
p4746
tp4747
Rp4748
g4732
tp4749
a(I9950000
g1
(g5
S'\xcd\xcc\xcc\xcc\xcc\xcc4@'
p4750
tp4751
Rp4752
g4732
tp4753
a(I9960000
g1
(g5
S'H\xe1z\x14\xae\xc74@'
p4754
tp4755
Rp4756
g4732
tp4757
a.